
bomb:     file format elf32-i386


Disassembly of section .init:

08048748 <_init>:
 8048748:	55                   	push   %ebp
 8048749:	89 e5                	mov    %esp,%ebp
 804874b:	53                   	push   %ebx
 804874c:	83 ec 04             	sub    $0x4,%esp
 804874f:	e8 00 00 00 00       	call   8048754 <_init+0xc>
 8048754:	5b                   	pop    %ebx
 8048755:	81 c3 ac 29 00 00    	add    $0x29ac,%ebx
 804875b:	8b 93 fc ff ff ff    	mov    -0x4(%ebx),%edx
 8048761:	85 d2                	test   %edx,%edx
 8048763:	74 05                	je     804876a <_init+0x22>
 8048765:	e8 d6 00 00 00       	call   8048840 <__gmon_start__@plt>
 804876a:	58                   	pop    %eax
 804876b:	5b                   	pop    %ebx
 804876c:	c9                   	leave  
 804876d:	c3                   	ret    

Disassembly of section .plt:

08048770 <read@plt-0x10>:
 8048770:	ff 35 04 b1 04 08    	pushl  0x804b104
 8048776:	ff 25 08 b1 04 08    	jmp    *0x804b108
 804877c:	00 00                	add    %al,(%eax)
	...

08048780 <read@plt>:
 8048780:	ff 25 0c b1 04 08    	jmp    *0x804b10c
 8048786:	68 00 00 00 00       	push   $0x0
 804878b:	e9 e0 ff ff ff       	jmp    8048770 <_init+0x28>

08048790 <printf@plt>:
 8048790:	ff 25 10 b1 04 08    	jmp    *0x804b110
 8048796:	68 08 00 00 00       	push   $0x8
 804879b:	e9 d0 ff ff ff       	jmp    8048770 <_init+0x28>

080487a0 <fflush@plt>:
 80487a0:	ff 25 14 b1 04 08    	jmp    *0x804b114
 80487a6:	68 10 00 00 00       	push   $0x10
 80487ab:	e9 c0 ff ff ff       	jmp    8048770 <_init+0x28>

080487b0 <memcpy@plt>:
 80487b0:	ff 25 18 b1 04 08    	jmp    *0x804b118
 80487b6:	68 18 00 00 00       	push   $0x18
 80487bb:	e9 b0 ff ff ff       	jmp    8048770 <_init+0x28>

080487c0 <fgets@plt>:
 80487c0:	ff 25 1c b1 04 08    	jmp    *0x804b11c
 80487c6:	68 20 00 00 00       	push   $0x20
 80487cb:	e9 a0 ff ff ff       	jmp    8048770 <_init+0x28>

080487d0 <signal@plt>:
 80487d0:	ff 25 20 b1 04 08    	jmp    *0x804b120
 80487d6:	68 28 00 00 00       	push   $0x28
 80487db:	e9 90 ff ff ff       	jmp    8048770 <_init+0x28>

080487e0 <sleep@plt>:
 80487e0:	ff 25 24 b1 04 08    	jmp    *0x804b124
 80487e6:	68 30 00 00 00       	push   $0x30
 80487eb:	e9 80 ff ff ff       	jmp    8048770 <_init+0x28>

080487f0 <alarm@plt>:
 80487f0:	ff 25 28 b1 04 08    	jmp    *0x804b128
 80487f6:	68 38 00 00 00       	push   $0x38
 80487fb:	e9 70 ff ff ff       	jmp    8048770 <_init+0x28>

08048800 <bcopy@plt>:
 8048800:	ff 25 2c b1 04 08    	jmp    *0x804b12c
 8048806:	68 40 00 00 00       	push   $0x40
 804880b:	e9 60 ff ff ff       	jmp    8048770 <_init+0x28>

08048810 <strcpy@plt>:
 8048810:	ff 25 30 b1 04 08    	jmp    *0x804b130
 8048816:	68 48 00 00 00       	push   $0x48
 804881b:	e9 50 ff ff ff       	jmp    8048770 <_init+0x28>

08048820 <getenv@plt>:
 8048820:	ff 25 34 b1 04 08    	jmp    *0x804b134
 8048826:	68 50 00 00 00       	push   $0x50
 804882b:	e9 40 ff ff ff       	jmp    8048770 <_init+0x28>

08048830 <puts@plt>:
 8048830:	ff 25 38 b1 04 08    	jmp    *0x804b138
 8048836:	68 58 00 00 00       	push   $0x58
 804883b:	e9 30 ff ff ff       	jmp    8048770 <_init+0x28>

08048840 <__gmon_start__@plt>:
 8048840:	ff 25 3c b1 04 08    	jmp    *0x804b13c
 8048846:	68 60 00 00 00       	push   $0x60
 804884b:	e9 20 ff ff ff       	jmp    8048770 <_init+0x28>

08048850 <exit@plt>:
 8048850:	ff 25 40 b1 04 08    	jmp    *0x804b140
 8048856:	68 68 00 00 00       	push   $0x68
 804885b:	e9 10 ff ff ff       	jmp    8048770 <_init+0x28>

08048860 <__libc_start_main@plt>:
 8048860:	ff 25 44 b1 04 08    	jmp    *0x804b144
 8048866:	68 70 00 00 00       	push   $0x70
 804886b:	e9 00 ff ff ff       	jmp    8048770 <_init+0x28>

08048870 <fprintf@plt>:
 8048870:	ff 25 48 b1 04 08    	jmp    *0x804b148
 8048876:	68 78 00 00 00       	push   $0x78
 804887b:	e9 f0 fe ff ff       	jmp    8048770 <_init+0x28>

08048880 <write@plt>:
 8048880:	ff 25 4c b1 04 08    	jmp    *0x804b14c
 8048886:	68 80 00 00 00       	push   $0x80
 804888b:	e9 e0 fe ff ff       	jmp    8048770 <_init+0x28>

08048890 <__isoc99_sscanf@plt>:
 8048890:	ff 25 50 b1 04 08    	jmp    *0x804b150
 8048896:	68 88 00 00 00       	push   $0x88
 804889b:	e9 d0 fe ff ff       	jmp    8048770 <_init+0x28>

080488a0 <fopen@plt>:
 80488a0:	ff 25 54 b1 04 08    	jmp    *0x804b154
 80488a6:	68 90 00 00 00       	push   $0x90
 80488ab:	e9 c0 fe ff ff       	jmp    8048770 <_init+0x28>

080488b0 <__errno_location@plt>:
 80488b0:	ff 25 58 b1 04 08    	jmp    *0x804b158
 80488b6:	68 98 00 00 00       	push   $0x98
 80488bb:	e9 b0 fe ff ff       	jmp    8048770 <_init+0x28>

080488c0 <sprintf@plt>:
 80488c0:	ff 25 5c b1 04 08    	jmp    *0x804b15c
 80488c6:	68 a0 00 00 00       	push   $0xa0
 80488cb:	e9 a0 fe ff ff       	jmp    8048770 <_init+0x28>

080488d0 <socket@plt>:
 80488d0:	ff 25 60 b1 04 08    	jmp    *0x804b160
 80488d6:	68 a8 00 00 00       	push   $0xa8
 80488db:	e9 90 fe ff ff       	jmp    8048770 <_init+0x28>

080488e0 <gethostbyname@plt>:
 80488e0:	ff 25 64 b1 04 08    	jmp    *0x804b164
 80488e6:	68 b0 00 00 00       	push   $0xb0
 80488eb:	e9 80 fe ff ff       	jmp    8048770 <_init+0x28>

080488f0 <strtol@plt>:
 80488f0:	ff 25 68 b1 04 08    	jmp    *0x804b168
 80488f6:	68 b8 00 00 00       	push   $0xb8
 80488fb:	e9 70 fe ff ff       	jmp    8048770 <_init+0x28>

08048900 <connect@plt>:
 8048900:	ff 25 6c b1 04 08    	jmp    *0x804b16c
 8048906:	68 c0 00 00 00       	push   $0xc0
 804890b:	e9 60 fe ff ff       	jmp    8048770 <_init+0x28>

08048910 <close@plt>:
 8048910:	ff 25 70 b1 04 08    	jmp    *0x804b170
 8048916:	68 c8 00 00 00       	push   $0xc8
 804891b:	e9 50 fe ff ff       	jmp    8048770 <_init+0x28>

08048920 <__ctype_b_loc@plt>:
 8048920:	ff 25 74 b1 04 08    	jmp    *0x804b174
 8048926:	68 d0 00 00 00       	push   $0xd0
 804892b:	e9 40 fe ff ff       	jmp    8048770 <_init+0x28>

Disassembly of section .text:

08048930 <_start>:
 8048930:	31 ed                	xor    %ebp,%ebp
 8048932:	5e                   	pop    %esi
 8048933:	89 e1                	mov    %esp,%ecx
 8048935:	83 e4 f0             	and    $0xfffffff0,%esp
 8048938:	50                   	push   %eax
 8048939:	54                   	push   %esp
 804893a:	52                   	push   %edx
 804893b:	68 a0 9e 04 08       	push   $0x8049ea0
 8048940:	68 b0 9e 04 08       	push   $0x8049eb0
 8048945:	51                   	push   %ecx
 8048946:	56                   	push   %esi
 8048947:	68 1c 8a 04 08       	push   $0x8048a1c
 804894c:	e8 0f ff ff ff       	call   8048860 <__libc_start_main@plt>
 8048951:	f4                   	hlt    
 8048952:	90                   	nop
 8048953:	90                   	nop
 8048954:	90                   	nop
 8048955:	90                   	nop
 8048956:	90                   	nop
 8048957:	90                   	nop
 8048958:	90                   	nop
 8048959:	90                   	nop
 804895a:	90                   	nop
 804895b:	90                   	nop
 804895c:	90                   	nop
 804895d:	90                   	nop
 804895e:	90                   	nop
 804895f:	90                   	nop

08048960 <deregister_tm_clones>:
 8048960:	b8 a3 b4 04 08       	mov    $0x804b4a3,%eax
 8048965:	2d a0 b4 04 08       	sub    $0x804b4a0,%eax
 804896a:	83 f8 06             	cmp    $0x6,%eax
 804896d:	77 02                	ja     8048971 <deregister_tm_clones+0x11>
 804896f:	f3 c3                	repz ret 
 8048971:	b8 00 00 00 00       	mov    $0x0,%eax
 8048976:	85 c0                	test   %eax,%eax
 8048978:	74 f5                	je     804896f <deregister_tm_clones+0xf>
 804897a:	55                   	push   %ebp
 804897b:	89 e5                	mov    %esp,%ebp
 804897d:	83 ec 18             	sub    $0x18,%esp
 8048980:	c7 04 24 a0 b4 04 08 	movl   $0x804b4a0,(%esp)
 8048987:	ff d0                	call   *%eax
 8048989:	c9                   	leave  
 804898a:	c3                   	ret    
 804898b:	90                   	nop
 804898c:	8d 74 26 00          	lea    0x0(%esi,%eiz,1),%esi

08048990 <register_tm_clones>:
 8048990:	b8 a0 b4 04 08       	mov    $0x804b4a0,%eax
 8048995:	2d a0 b4 04 08       	sub    $0x804b4a0,%eax
 804899a:	c1 f8 02             	sar    $0x2,%eax
 804899d:	89 c2                	mov    %eax,%edx
 804899f:	c1 ea 1f             	shr    $0x1f,%edx
 80489a2:	01 d0                	add    %edx,%eax
 80489a4:	d1 f8                	sar    %eax
 80489a6:	75 02                	jne    80489aa <register_tm_clones+0x1a>
 80489a8:	f3 c3                	repz ret 
 80489aa:	ba 00 00 00 00       	mov    $0x0,%edx
 80489af:	85 d2                	test   %edx,%edx
 80489b1:	74 f5                	je     80489a8 <register_tm_clones+0x18>
 80489b3:	55                   	push   %ebp
 80489b4:	89 e5                	mov    %esp,%ebp
 80489b6:	83 ec 18             	sub    $0x18,%esp
 80489b9:	89 44 24 04          	mov    %eax,0x4(%esp)
 80489bd:	c7 04 24 a0 b4 04 08 	movl   $0x804b4a0,(%esp)
 80489c4:	ff d2                	call   *%edx
 80489c6:	c9                   	leave  
 80489c7:	c3                   	ret    
 80489c8:	90                   	nop
 80489c9:	8d b4 26 00 00 00 00 	lea    0x0(%esi,%eiz,1),%esi

080489d0 <__do_global_dtors_aux>:
 80489d0:	80 3d c4 b4 04 08 00 	cmpb   $0x0,0x804b4c4
 80489d7:	75 13                	jne    80489ec <__do_global_dtors_aux+0x1c>
 80489d9:	55                   	push   %ebp
 80489da:	89 e5                	mov    %esp,%ebp
 80489dc:	83 ec 08             	sub    $0x8,%esp
 80489df:	e8 7c ff ff ff       	call   8048960 <deregister_tm_clones>
 80489e4:	c6 05 c4 b4 04 08 01 	movb   $0x1,0x804b4c4
 80489eb:	c9                   	leave  
 80489ec:	f3 c3                	repz ret 
 80489ee:	66 90                	xchg   %ax,%ax

080489f0 <frame_dummy>:
 80489f0:	a1 08 b0 04 08       	mov    0x804b008,%eax
 80489f5:	85 c0                	test   %eax,%eax
 80489f7:	74 1e                	je     8048a17 <frame_dummy+0x27>
 80489f9:	b8 00 00 00 00       	mov    $0x0,%eax
 80489fe:	85 c0                	test   %eax,%eax
 8048a00:	74 15                	je     8048a17 <frame_dummy+0x27>
 8048a02:	55                   	push   %ebp
 8048a03:	89 e5                	mov    %esp,%ebp
 8048a05:	83 ec 18             	sub    $0x18,%esp
 8048a08:	c7 04 24 08 b0 04 08 	movl   $0x804b008,(%esp)
 8048a0f:	ff d0                	call   *%eax
 8048a11:	c9                   	leave  
 8048a12:	e9 79 ff ff ff       	jmp    8048990 <register_tm_clones>
 8048a17:	e9 74 ff ff ff       	jmp    8048990 <register_tm_clones>

08048a1c <main>:
 8048a1c:	55                   	push   %ebp
 8048a1d:	89 e5                	mov    %esp,%ebp
 8048a1f:	53                   	push   %ebx
 8048a20:	83 e4 f0             	and    $0xfffffff0,%esp
 8048a23:	83 ec 10             	sub    $0x10,%esp
 8048a26:	8b 45 08             	mov    0x8(%ebp),%eax
 8048a29:	8b 5d 0c             	mov    0xc(%ebp),%ebx
 8048a2c:	83 f8 01             	cmp    $0x1,%eax
 8048a2f:	75 0c                	jne    8048a3d <main+0x21>
 8048a31:	a1 a4 b4 04 08       	mov    0x804b4a4,%eax
 8048a36:	a3 cc b4 04 08       	mov    %eax,0x804b4cc
 8048a3b:	eb 64                	jmp    8048aa1 <main+0x85>
 8048a3d:	83 f8 02             	cmp    $0x2,%eax
 8048a40:	75 41                	jne    8048a83 <main+0x67>
 8048a42:	c7 44 24 04 48 9f 04 	movl   $0x8049f48,0x4(%esp)
 8048a49:	08 
 8048a4a:	8b 43 04             	mov    0x4(%ebx),%eax
 8048a4d:	89 04 24             	mov    %eax,(%esp)
 8048a50:	e8 4b fe ff ff       	call   80488a0 <fopen@plt>
 8048a55:	a3 cc b4 04 08       	mov    %eax,0x804b4cc
 8048a5a:	85 c0                	test   %eax,%eax
 8048a5c:	75 43                	jne    8048aa1 <main+0x85>
 8048a5e:	8b 43 04             	mov    0x4(%ebx),%eax
 8048a61:	89 44 24 08          	mov    %eax,0x8(%esp)
 8048a65:	8b 03                	mov    (%ebx),%eax
 8048a67:	89 44 24 04          	mov    %eax,0x4(%esp)
 8048a6b:	c7 04 24 4a 9f 04 08 	movl   $0x8049f4a,(%esp)
 8048a72:	e8 19 fd ff ff       	call   8048790 <printf@plt>
 8048a77:	c7 04 24 08 00 00 00 	movl   $0x8,(%esp)
 8048a7e:	e8 cd fd ff ff       	call   8048850 <exit@plt>
 8048a83:	8b 03                	mov    (%ebx),%eax
 8048a85:	89 44 24 04          	mov    %eax,0x4(%esp)
 8048a89:	c7 04 24 67 9f 04 08 	movl   $0x8049f67,(%esp)
 8048a90:	e8 fb fc ff ff       	call   8048790 <printf@plt>
 8048a95:	c7 04 24 08 00 00 00 	movl   $0x8,(%esp)
 8048a9c:	e8 af fd ff ff       	call   8048850 <exit@plt>
 8048aa1:	e8 82 05 00 00       	call   8049028 <initialize_bomb>
 8048aa6:	c7 04 24 cc 9f 04 08 	movl   $0x8049fcc,(%esp)
 8048aad:	e8 7e fd ff ff       	call   8048830 <puts@plt>
 8048ab2:	c7 04 24 08 a0 04 08 	movl   $0x804a008,(%esp)
 8048ab9:	e8 72 fd ff ff       	call   8048830 <puts@plt>
 8048abe:	e8 2b 06 00 00       	call   80490ee <read_line>
 8048ac3:	89 04 24             	mov    %eax,(%esp)
 8048ac6:	e8 a5 00 00 00       	call   8048b70 <phase_1>
 8048acb:	e8 7a 07 00 00       	call   804924a <phase_defused>
 8048ad0:	c7 04 24 34 a0 04 08 	movl   $0x804a034,(%esp)
 8048ad7:	e8 54 fd ff ff       	call   8048830 <puts@plt>
 8048adc:	e8 0d 06 00 00       	call   80490ee <read_line>
 8048ae1:	89 04 24             	mov    %eax,(%esp)
 8048ae4:	e8 ab 00 00 00       	call   8048b94 <phase_2>
 8048ae9:	e8 5c 07 00 00       	call   804924a <phase_defused>
 8048aee:	c7 04 24 81 9f 04 08 	movl   $0x8049f81,(%esp)
 8048af5:	e8 36 fd ff ff       	call   8048830 <puts@plt>
 8048afa:	e8 ef 05 00 00       	call   80490ee <read_line>
 8048aff:	89 04 24             	mov    %eax,(%esp)
 8048b02:	e8 e3 00 00 00       	call   8048bea <phase_3>
 8048b07:	e8 3e 07 00 00       	call   804924a <phase_defused>
 8048b0c:	c7 04 24 9f 9f 04 08 	movl   $0x8049f9f,(%esp)
 8048b13:	e8 18 fd ff ff       	call   8048830 <puts@plt>
 8048b18:	e8 d1 05 00 00       	call   80490ee <read_line>
 8048b1d:	89 04 24             	mov    %eax,(%esp)
 8048b20:	e8 b6 01 00 00       	call   8048cdb <phase_4>
 8048b25:	e8 20 07 00 00       	call   804924a <phase_defused>
 8048b2a:	c7 04 24 60 a0 04 08 	movl   $0x804a060,(%esp)
 8048b31:	e8 fa fc ff ff       	call   8048830 <puts@plt>
 8048b36:	e8 b3 05 00 00       	call   80490ee <read_line>
 8048b3b:	89 04 24             	mov    %eax,(%esp)
 8048b3e:	e8 fa 01 00 00       	call   8048d3d <phase_5>
 8048b43:	e8 02 07 00 00       	call   804924a <phase_defused>
 8048b48:	c7 04 24 ae 9f 04 08 	movl   $0x8049fae,(%esp)
 8048b4f:	e8 dc fc ff ff       	call   8048830 <puts@plt>
 8048b54:	e8 95 05 00 00       	call   80490ee <read_line>
 8048b59:	89 04 24             	mov    %eax,(%esp)
 8048b5c:	e8 25 02 00 00       	call   8048d86 <phase_6>
 8048b61:	e8 e4 06 00 00       	call   804924a <phase_defused>
 8048b66:	b8 00 00 00 00       	mov    $0x0,%eax
 8048b6b:	8b 5d fc             	mov    -0x4(%ebp),%ebx
 8048b6e:	c9                   	leave  
 8048b6f:	c3                   	ret    

08048b70 <phase_1>:
 8048b70:	83 ec 1c             	sub    $0x1c,%esp
 8048b73:	c7 44 24 04 84 a0 04 	movl   $0x804a084,0x4(%esp)
 8048b7a:	08 
 8048b7b:	8b 44 24 20          	mov    0x20(%esp),%eax
 8048b7f:	89 04 24             	mov    %eax,(%esp)
 8048b82:	e8 33 04 00 00       	call   8048fba <strings_not_equal>
 8048b87:	85 c0                	test   %eax,%eax
 8048b89:	74 05                	je     8048b90 <phase_1+0x20>
 8048b8b:	e8 37 05 00 00       	call   80490c7 <explode_bomb>
 8048b90:	83 c4 1c             	add    $0x1c,%esp
 8048b93:	c3                   	ret    

08048b94 <phase_2>:
 8048b94:	56                   	push   %esi
 8048b95:	53                   	push   %ebx
 8048b96:	83 ec 34             	sub    $0x34,%esp
 8048b99:	8d 44 24 18          	lea    0x18(%esp),%eax
 8048b9d:	89 44 24 04          	mov    %eax,0x4(%esp)
 8048ba1:	8b 44 24 40          	mov    0x40(%esp),%eax
 8048ba5:	89 04 24             	mov    %eax,(%esp)
 8048ba8:	e8 4d 06 00 00       	call   80491fa <read_six_numbers>
 8048bad:	83 7c 24 18 00       	cmpl   $0x0,0x18(%esp)
 8048bb2:	75 07                	jne    8048bbb <phase_2+0x27>
 8048bb4:	83 7c 24 1c 01       	cmpl   $0x1,0x1c(%esp)
 8048bb9:	74 1f                	je     8048bda <phase_2+0x46>
 8048bbb:	e8 07 05 00 00       	call   80490c7 <explode_bomb>
 8048bc0:	eb 18                	jmp    8048bda <phase_2+0x46>
 8048bc2:	8b 43 f8             	mov    -0x8(%ebx),%eax
 8048bc5:	03 43 fc             	add    -0x4(%ebx),%eax
 8048bc8:	39 03                	cmp    %eax,(%ebx)
 8048bca:	74 05                	je     8048bd1 <phase_2+0x3d>
 8048bcc:	e8 f6 04 00 00       	call   80490c7 <explode_bomb>
 8048bd1:	83 c3 04             	add    $0x4,%ebx
 8048bd4:	39 f3                	cmp    %esi,%ebx
 8048bd6:	75 ea                	jne    8048bc2 <phase_2+0x2e>
 8048bd8:	eb 0a                	jmp    8048be4 <phase_2+0x50>
 8048bda:	8d 5c 24 20          	lea    0x20(%esp),%ebx
 8048bde:	8d 74 24 30          	lea    0x30(%esp),%esi
 8048be2:	eb de                	jmp    8048bc2 <phase_2+0x2e>
 8048be4:	83 c4 34             	add    $0x34,%esp
 8048be7:	5b                   	pop    %ebx
 8048be8:	5e                   	pop    %esi
 8048be9:	c3                   	ret    

08048bea <phase_3>:
 8048bea:	83 ec 2c             	sub    $0x2c,%esp
 8048bed:	8d 44 24 18          	lea    0x18(%esp),%eax
 8048bf1:	89 44 24 0c          	mov    %eax,0xc(%esp)
 8048bf5:	8d 44 24 1c          	lea    0x1c(%esp),%eax
 8048bf9:	89 44 24 08          	mov    %eax,0x8(%esp)
 8048bfd:	c7 44 24 04 a3 a2 04 	movl   $0x804a2a3,0x4(%esp)
 8048c04:	08 
 8048c05:	8b 44 24 30          	mov    0x30(%esp),%eax
 8048c09:	89 04 24             	mov    %eax,(%esp)
 8048c0c:	e8 7f fc ff ff       	call   8048890 <__isoc99_sscanf@plt>
 8048c11:	83 f8 01             	cmp    $0x1,%eax
 8048c14:	7f 05                	jg     8048c1b <phase_3+0x31>
 8048c16:	e8 ac 04 00 00       	call   80490c7 <explode_bomb>
 8048c1b:	83 7c 24 1c 07       	cmpl   $0x7,0x1c(%esp)
 8048c20:	77 3c                	ja     8048c5e <phase_3+0x74>
 8048c22:	8b 44 24 1c          	mov    0x1c(%esp),%eax
 8048c26:	ff 24 85 e0 a0 04 08 	jmp    *0x804a0e0(,%eax,4)
 8048c2d:	b8 7f 03 00 00       	mov    $0x37f,%eax
 8048c32:	eb 3b                	jmp    8048c6f <phase_3+0x85>
 8048c34:	b8 5d 02 00 00       	mov    $0x25d,%eax
 8048c39:	eb 34                	jmp    8048c6f <phase_3+0x85>
 8048c3b:	b8 35 02 00 00       	mov    $0x235,%eax
 8048c40:	eb 2d                	jmp    8048c6f <phase_3+0x85>
 8048c42:	b8 96 00 00 00       	mov    $0x96,%eax
 8048c47:	eb 26                	jmp    8048c6f <phase_3+0x85>
 8048c49:	b8 60 02 00 00       	mov    $0x260,%eax
 8048c4e:	eb 1f                	jmp    8048c6f <phase_3+0x85>
 8048c50:	b8 10 02 00 00       	mov    $0x210,%eax
 8048c55:	eb 18                	jmp    8048c6f <phase_3+0x85>
 8048c57:	b8 b9 03 00 00       	mov    $0x3b9,%eax
 8048c5c:	eb 11                	jmp    8048c6f <phase_3+0x85>
 8048c5e:	e8 64 04 00 00       	call   80490c7 <explode_bomb>
 8048c63:	b8 00 00 00 00       	mov    $0x0,%eax
 8048c68:	eb 05                	jmp    8048c6f <phase_3+0x85>
 8048c6a:	b8 62 02 00 00       	mov    $0x262,%eax
 8048c6f:	3b 44 24 18          	cmp    0x18(%esp),%eax
 8048c73:	74 05                	je     8048c7a <phase_3+0x90>
 8048c75:	e8 4d 04 00 00       	call   80490c7 <explode_bomb>
 8048c7a:	83 c4 2c             	add    $0x2c,%esp
 8048c7d:	c3                   	ret    

08048c7e <func4>:
 8048c7e:	83 ec 1c             	sub    $0x1c,%esp
 8048c81:	89 5c 24 10          	mov    %ebx,0x10(%esp)
 8048c85:	89 74 24 14          	mov    %esi,0x14(%esp)
 8048c89:	89 7c 24 18          	mov    %edi,0x18(%esp)
 8048c8d:	8b 74 24 20          	mov    0x20(%esp),%esi
 8048c91:	8b 5c 24 24          	mov    0x24(%esp),%ebx
 8048c95:	85 f6                	test   %esi,%esi
 8048c97:	7e 2b                	jle    8048cc4 <func4+0x46>
 8048c99:	83 fe 01             	cmp    $0x1,%esi
 8048c9c:	74 2b                	je     8048cc9 <func4+0x4b>
 8048c9e:	89 5c 24 04          	mov    %ebx,0x4(%esp)
 8048ca2:	8d 46 ff             	lea    -0x1(%esi),%eax
 8048ca5:	89 04 24             	mov    %eax,(%esp)
 8048ca8:	e8 d1 ff ff ff       	call   8048c7e <func4>
 8048cad:	8d 3c 18             	lea    (%eax,%ebx,1),%edi
 8048cb0:	89 5c 24 04          	mov    %ebx,0x4(%esp)
 8048cb4:	83 ee 02             	sub    $0x2,%esi
 8048cb7:	89 34 24             	mov    %esi,(%esp)
 8048cba:	e8 bf ff ff ff       	call   8048c7e <func4>
 8048cbf:	8d 1c 07             	lea    (%edi,%eax,1),%ebx
 8048cc2:	eb 05                	jmp    8048cc9 <func4+0x4b>
 8048cc4:	bb 00 00 00 00       	mov    $0x0,%ebx
 8048cc9:	89 d8                	mov    %ebx,%eax
 8048ccb:	8b 5c 24 10          	mov    0x10(%esp),%ebx
 8048ccf:	8b 74 24 14          	mov    0x14(%esp),%esi
 8048cd3:	8b 7c 24 18          	mov    0x18(%esp),%edi
 8048cd7:	83 c4 1c             	add    $0x1c,%esp
 8048cda:	c3                   	ret    

08048cdb <phase_4>:
 8048cdb:	83 ec 2c             	sub    $0x2c,%esp
 8048cde:	8d 44 24 1c          	lea    0x1c(%esp),%eax
 8048ce2:	89 44 24 0c          	mov    %eax,0xc(%esp)
 8048ce6:	8d 44 24 18          	lea    0x18(%esp),%eax
 8048cea:	89 44 24 08          	mov    %eax,0x8(%esp)
 8048cee:	c7 44 24 04 a3 a2 04 	movl   $0x804a2a3,0x4(%esp)
 8048cf5:	08 
 8048cf6:	8b 44 24 30          	mov    0x30(%esp),%eax
 8048cfa:	89 04 24             	mov    %eax,(%esp)
 8048cfd:	e8 8e fb ff ff       	call   8048890 <__isoc99_sscanf@plt>
 8048d02:	83 f8 02             	cmp    $0x2,%eax
 8048d05:	75 0e                	jne    8048d15 <phase_4+0x3a>
 8048d07:	8b 44 24 1c          	mov    0x1c(%esp),%eax
 8048d0b:	83 f8 01             	cmp    $0x1,%eax
 8048d0e:	7e 05                	jle    8048d15 <phase_4+0x3a>
 8048d10:	83 f8 04             	cmp    $0x4,%eax
 8048d13:	7e 05                	jle    8048d1a <phase_4+0x3f>
 8048d15:	e8 ad 03 00 00       	call   80490c7 <explode_bomb>
 8048d1a:	8b 44 24 1c          	mov    0x1c(%esp),%eax
 8048d1e:	89 44 24 04          	mov    %eax,0x4(%esp)
 8048d22:	c7 04 24 05 00 00 00 	movl   $0x5,(%esp)
 8048d29:	e8 50 ff ff ff       	call   8048c7e <func4>
 8048d2e:	3b 44 24 18          	cmp    0x18(%esp),%eax
 8048d32:	74 05                	je     8048d39 <phase_4+0x5e>
 8048d34:	e8 8e 03 00 00       	call   80490c7 <explode_bomb>
 8048d39:	83 c4 2c             	add    $0x2c,%esp
 8048d3c:	c3                   	ret    

08048d3d <phase_5>:
 8048d3d:	53                   	push   %ebx
 8048d3e:	83 ec 18             	sub    $0x18,%esp
 8048d41:	8b 5c 24 20          	mov    0x20(%esp),%ebx
 8048d45:	89 1c 24             	mov    %ebx,(%esp)
 8048d48:	e8 4e 02 00 00       	call   8048f9b <string_length>
 8048d4d:	83 f8 06             	cmp    $0x6,%eax
 8048d50:	74 05                	je     8048d57 <phase_5+0x1a>
 8048d52:	e8 70 03 00 00       	call   80490c7 <explode_bomb>
 8048d57:	ba 00 00 00 00       	mov    $0x0,%edx
 8048d5c:	b8 00 00 00 00       	mov    $0x0,%eax
 8048d61:	0f b6 0c 03          	movzbl (%ebx,%eax,1),%ecx
 8048d65:	83 e1 0f             	and    $0xf,%ecx
 8048d68:	03 14 8d 00 a1 04 08 	add    0x804a100(,%ecx,4),%edx
 8048d6f:	83 c0 01             	add    $0x1,%eax
 8048d72:	83 f8 06             	cmp    $0x6,%eax
 8048d75:	75 ea                	jne    8048d61 <phase_5+0x24>
 8048d77:	83 fa 3c             	cmp    $0x3c,%edx
 8048d7a:	74 05                	je     8048d81 <phase_5+0x44>
 8048d7c:	e8 46 03 00 00       	call   80490c7 <explode_bomb>
 8048d81:	83 c4 18             	add    $0x18,%esp
 8048d84:	5b                   	pop    %ebx
 8048d85:	c3                   	ret    

08048d86 <phase_6>:
 8048d86:	57                   	push   %edi
 8048d87:	56                   	push   %esi
 8048d88:	53                   	push   %ebx
 8048d89:	83 ec 40             	sub    $0x40,%esp
 8048d8c:	8d 44 24 28          	lea    0x28(%esp),%eax
 8048d90:	89 44 24 04          	mov    %eax,0x4(%esp)
 8048d94:	8b 44 24 50          	mov    0x50(%esp),%eax
 8048d98:	89 04 24             	mov    %eax,(%esp)
 8048d9b:	e8 5a 04 00 00       	call   80491fa <read_six_numbers>
 8048da0:	bf 00 00 00 00       	mov    $0x0,%edi
 8048da5:	8b 44 bc 28          	mov    0x28(%esp,%edi,4),%eax
 8048da9:	83 e8 01             	sub    $0x1,%eax
 8048dac:	83 f8 05             	cmp    $0x5,%eax
 8048daf:	76 05                	jbe    8048db6 <phase_6+0x30>
 8048db1:	e8 11 03 00 00       	call   80490c7 <explode_bomb>
 8048db6:	8d 77 01             	lea    0x1(%edi),%esi
 8048db9:	83 fe 06             	cmp    $0x6,%esi
 8048dbc:	74 35                	je     8048df3 <phase_6+0x6d>
 8048dbe:	89 f3                	mov    %esi,%ebx
 8048dc0:	8b 44 9c 28          	mov    0x28(%esp,%ebx,4),%eax
 8048dc4:	39 44 b4 24          	cmp    %eax,0x24(%esp,%esi,4)
 8048dc8:	75 05                	jne    8048dcf <phase_6+0x49>
 8048dca:	e8 f8 02 00 00       	call   80490c7 <explode_bomb>
 8048dcf:	83 c3 01             	add    $0x1,%ebx
 8048dd2:	89 f7                	mov    %esi,%edi
 8048dd4:	83 fb 05             	cmp    $0x5,%ebx
 8048dd7:	7e e7                	jle    8048dc0 <phase_6+0x3a>
 8048dd9:	eb ca                	jmp    8048da5 <phase_6+0x1f>
 8048ddb:	8b 52 08             	mov    0x8(%edx),%edx
 8048dde:	83 c0 01             	add    $0x1,%eax
 8048de1:	39 c8                	cmp    %ecx,%eax
 8048de3:	75 f6                	jne    8048ddb <phase_6+0x55>
 8048de5:	89 54 b4 10          	mov    %edx,0x10(%esp,%esi,4)
 8048de9:	83 c3 01             	add    $0x1,%ebx
 8048dec:	83 fb 06             	cmp    $0x6,%ebx
 8048def:	75 07                	jne    8048df8 <phase_6+0x72>
 8048df1:	eb 1c                	jmp    8048e0f <phase_6+0x89>
 8048df3:	bb 00 00 00 00       	mov    $0x0,%ebx
 8048df8:	89 de                	mov    %ebx,%esi
 8048dfa:	8b 4c 9c 28          	mov    0x28(%esp,%ebx,4),%ecx
 8048dfe:	b8 01 00 00 00       	mov    $0x1,%eax
 8048e03:	ba 3c b2 04 08       	mov    $0x804b23c,%edx
 8048e08:	83 f9 01             	cmp    $0x1,%ecx
 8048e0b:	7f ce                	jg     8048ddb <phase_6+0x55>
 8048e0d:	eb d6                	jmp    8048de5 <phase_6+0x5f>
 8048e0f:	8b 5c 24 10          	mov    0x10(%esp),%ebx
 8048e13:	8b 44 24 14          	mov    0x14(%esp),%eax
 8048e17:	89 43 08             	mov    %eax,0x8(%ebx)
 8048e1a:	8b 54 24 18          	mov    0x18(%esp),%edx
 8048e1e:	89 50 08             	mov    %edx,0x8(%eax)
 8048e21:	8b 44 24 1c          	mov    0x1c(%esp),%eax
 8048e25:	89 42 08             	mov    %eax,0x8(%edx)
 8048e28:	8b 54 24 20          	mov    0x20(%esp),%edx
 8048e2c:	89 50 08             	mov    %edx,0x8(%eax)
 8048e2f:	8b 44 24 24          	mov    0x24(%esp),%eax
 8048e33:	89 42 08             	mov    %eax,0x8(%edx)
 8048e36:	c7 40 08 00 00 00 00 	movl   $0x0,0x8(%eax)
 8048e3d:	be 05 00 00 00       	mov    $0x5,%esi
 8048e42:	8b 43 08             	mov    0x8(%ebx),%eax
 8048e45:	8b 10                	mov    (%eax),%edx
 8048e47:	39 13                	cmp    %edx,(%ebx)
 8048e49:	7d 05                	jge    8048e50 <phase_6+0xca>
 8048e4b:	e8 77 02 00 00       	call   80490c7 <explode_bomb>
 8048e50:	8b 5b 08             	mov    0x8(%ebx),%ebx
 8048e53:	83 ee 01             	sub    $0x1,%esi
 8048e56:	75 ea                	jne    8048e42 <phase_6+0xbc>
 8048e58:	83 c4 40             	add    $0x40,%esp
 8048e5b:	5b                   	pop    %ebx
 8048e5c:	5e                   	pop    %esi
 8048e5d:	5f                   	pop    %edi
 8048e5e:	c3                   	ret    

08048e5f <fun7>:
 8048e5f:	53                   	push   %ebx
 8048e60:	83 ec 18             	sub    $0x18,%esp
 8048e63:	8b 54 24 20          	mov    0x20(%esp),%edx
 8048e67:	8b 4c 24 24          	mov    0x24(%esp),%ecx
 8048e6b:	85 d2                	test   %edx,%edx
 8048e6d:	74 37                	je     8048ea6 <fun7+0x47>
 8048e6f:	8b 1a                	mov    (%edx),%ebx
 8048e71:	39 cb                	cmp    %ecx,%ebx
 8048e73:	7e 13                	jle    8048e88 <fun7+0x29>
 8048e75:	89 4c 24 04          	mov    %ecx,0x4(%esp)
 8048e79:	8b 42 04             	mov    0x4(%edx),%eax
 8048e7c:	89 04 24             	mov    %eax,(%esp)
 8048e7f:	e8 db ff ff ff       	call   8048e5f <fun7>
 8048e84:	01 c0                	add    %eax,%eax
 8048e86:	eb 23                	jmp    8048eab <fun7+0x4c>
 8048e88:	b8 00 00 00 00       	mov    $0x0,%eax
 8048e8d:	39 cb                	cmp    %ecx,%ebx
 8048e8f:	74 1a                	je     8048eab <fun7+0x4c>
 8048e91:	89 4c 24 04          	mov    %ecx,0x4(%esp)
 8048e95:	8b 42 08             	mov    0x8(%edx),%eax
 8048e98:	89 04 24             	mov    %eax,(%esp)
 8048e9b:	e8 bf ff ff ff       	call   8048e5f <fun7>
 8048ea0:	8d 44 00 01          	lea    0x1(%eax,%eax,1),%eax
 8048ea4:	eb 05                	jmp    8048eab <fun7+0x4c>
 8048ea6:	b8 ff ff ff ff       	mov    $0xffffffff,%eax
 8048eab:	83 c4 18             	add    $0x18,%esp
 8048eae:	5b                   	pop    %ebx
 8048eaf:	c3                   	ret    

08048eb0 <secret_phase>:
 8048eb0:	53                   	push   %ebx
 8048eb1:	83 ec 18             	sub    $0x18,%esp
 8048eb4:	e8 35 02 00 00       	call   80490ee <read_line>
 8048eb9:	c7 44 24 08 0a 00 00 	movl   $0xa,0x8(%esp)
 8048ec0:	00 
 8048ec1:	c7 44 24 04 00 00 00 	movl   $0x0,0x4(%esp)
 8048ec8:	00 
 8048ec9:	89 04 24             	mov    %eax,(%esp)
 8048ecc:	e8 1f fa ff ff       	call   80488f0 <strtol@plt>
 8048ed1:	89 c3                	mov    %eax,%ebx
 8048ed3:	8d 40 ff             	lea    -0x1(%eax),%eax
 8048ed6:	3d e8 03 00 00       	cmp    $0x3e8,%eax
 8048edb:	76 05                	jbe    8048ee2 <secret_phase+0x32>
 8048edd:	e8 e5 01 00 00       	call   80490c7 <explode_bomb>
 8048ee2:	89 5c 24 04          	mov    %ebx,0x4(%esp)
 8048ee6:	c7 04 24 88 b1 04 08 	movl   $0x804b188,(%esp)
 8048eed:	e8 6d ff ff ff       	call   8048e5f <fun7>
 8048ef2:	83 f8 05             	cmp    $0x5,%eax
 8048ef5:	74 05                	je     8048efc <secret_phase+0x4c>
 8048ef7:	e8 cb 01 00 00       	call   80490c7 <explode_bomb>
 8048efc:	c7 04 24 b4 a0 04 08 	movl   $0x804a0b4,(%esp)
 8048f03:	e8 28 f9 ff ff       	call   8048830 <puts@plt>
 8048f08:	e8 3d 03 00 00       	call   804924a <phase_defused>
 8048f0d:	83 c4 18             	add    $0x18,%esp
 8048f10:	5b                   	pop    %ebx
 8048f11:	c3                   	ret    
 8048f12:	90                   	nop
 8048f13:	90                   	nop
 8048f14:	90                   	nop
 8048f15:	90                   	nop
 8048f16:	90                   	nop
 8048f17:	90                   	nop
 8048f18:	90                   	nop
 8048f19:	90                   	nop
 8048f1a:	90                   	nop
 8048f1b:	90                   	nop
 8048f1c:	90                   	nop
 8048f1d:	90                   	nop
 8048f1e:	90                   	nop
 8048f1f:	90                   	nop

08048f20 <sig_handler>:
 8048f20:	83 ec 1c             	sub    $0x1c,%esp
 8048f23:	c7 04 24 40 a1 04 08 	movl   $0x804a140,(%esp)
 8048f2a:	e8 01 f9 ff ff       	call   8048830 <puts@plt>
 8048f2f:	c7 04 24 03 00 00 00 	movl   $0x3,(%esp)
 8048f36:	e8 a5 f8 ff ff       	call   80487e0 <sleep@plt>
 8048f3b:	c7 04 24 02 a2 04 08 	movl   $0x804a202,(%esp)
 8048f42:	e8 49 f8 ff ff       	call   8048790 <printf@plt>
 8048f47:	a1 c0 b4 04 08       	mov    0x804b4c0,%eax
 8048f4c:	89 04 24             	mov    %eax,(%esp)
 8048f4f:	e8 4c f8 ff ff       	call   80487a0 <fflush@plt>
 8048f54:	c7 04 24 01 00 00 00 	movl   $0x1,(%esp)
 8048f5b:	e8 80 f8 ff ff       	call   80487e0 <sleep@plt>
 8048f60:	c7 04 24 0a a2 04 08 	movl   $0x804a20a,(%esp)
 8048f67:	e8 c4 f8 ff ff       	call   8048830 <puts@plt>
 8048f6c:	c7 04 24 10 00 00 00 	movl   $0x10,(%esp)
 8048f73:	e8 d8 f8 ff ff       	call   8048850 <exit@plt>

08048f78 <invalid_phase>:
 8048f78:	83 ec 1c             	sub    $0x1c,%esp
 8048f7b:	8b 44 24 20          	mov    0x20(%esp),%eax
 8048f7f:	89 44 24 04          	mov    %eax,0x4(%esp)
 8048f83:	c7 04 24 12 a2 04 08 	movl   $0x804a212,(%esp)
 8048f8a:	e8 01 f8 ff ff       	call   8048790 <printf@plt>
 8048f8f:	c7 04 24 08 00 00 00 	movl   $0x8,(%esp)
 8048f96:	e8 b5 f8 ff ff       	call   8048850 <exit@plt>

08048f9b <string_length>:
 8048f9b:	8b 54 24 04          	mov    0x4(%esp),%edx
 8048f9f:	80 3a 00             	cmpb   $0x0,(%edx)
 8048fa2:	74 10                	je     8048fb4 <string_length+0x19>
 8048fa4:	b8 00 00 00 00       	mov    $0x0,%eax
 8048fa9:	83 c0 01             	add    $0x1,%eax
 8048fac:	80 3c 02 00          	cmpb   $0x0,(%edx,%eax,1)
 8048fb0:	75 f7                	jne    8048fa9 <string_length+0xe>
 8048fb2:	f3 c3                	repz ret 
 8048fb4:	b8 00 00 00 00       	mov    $0x0,%eax
 8048fb9:	c3                   	ret    

08048fba <strings_not_equal>:
 8048fba:	57                   	push   %edi
 8048fbb:	56                   	push   %esi
 8048fbc:	53                   	push   %ebx
 8048fbd:	83 ec 04             	sub    $0x4,%esp
 8048fc0:	8b 5c 24 14          	mov    0x14(%esp),%ebx
 8048fc4:	8b 74 24 18          	mov    0x18(%esp),%esi
 8048fc8:	89 1c 24             	mov    %ebx,(%esp)
 8048fcb:	e8 cb ff ff ff       	call   8048f9b <string_length>
 8048fd0:	89 c7                	mov    %eax,%edi
 8048fd2:	89 34 24             	mov    %esi,(%esp)
 8048fd5:	e8 c1 ff ff ff       	call   8048f9b <string_length>
 8048fda:	ba 01 00 00 00       	mov    $0x1,%edx
 8048fdf:	39 c7                	cmp    %eax,%edi
 8048fe1:	75 3c                	jne    804901f <strings_not_equal+0x65>
 8048fe3:	0f b6 03             	movzbl (%ebx),%eax
 8048fe6:	84 c0                	test   %al,%al
 8048fe8:	74 22                	je     804900c <strings_not_equal+0x52>
 8048fea:	3a 06                	cmp    (%esi),%al
 8048fec:	75 25                	jne    8049013 <strings_not_equal+0x59>
 8048fee:	89 f2                	mov    %esi,%edx
 8048ff0:	89 d8                	mov    %ebx,%eax
 8048ff2:	eb 04                	jmp    8048ff8 <strings_not_equal+0x3e>
 8048ff4:	3a 0a                	cmp    (%edx),%cl
 8048ff6:	75 22                	jne    804901a <strings_not_equal+0x60>
 8048ff8:	83 c0 01             	add    $0x1,%eax
 8048ffb:	83 c2 01             	add    $0x1,%edx
 8048ffe:	0f b6 08             	movzbl (%eax),%ecx
 8049001:	84 c9                	test   %cl,%cl
 8049003:	75 ef                	jne    8048ff4 <strings_not_equal+0x3a>
 8049005:	ba 00 00 00 00       	mov    $0x0,%edx
 804900a:	eb 13                	jmp    804901f <strings_not_equal+0x65>
 804900c:	ba 00 00 00 00       	mov    $0x0,%edx
 8049011:	eb 0c                	jmp    804901f <strings_not_equal+0x65>
 8049013:	ba 01 00 00 00       	mov    $0x1,%edx
 8049018:	eb 05                	jmp    804901f <strings_not_equal+0x65>
 804901a:	ba 01 00 00 00       	mov    $0x1,%edx
 804901f:	89 d0                	mov    %edx,%eax
 8049021:	83 c4 04             	add    $0x4,%esp
 8049024:	5b                   	pop    %ebx
 8049025:	5e                   	pop    %esi
 8049026:	5f                   	pop    %edi
 8049027:	c3                   	ret    

08049028 <initialize_bomb>:
 8049028:	83 ec 1c             	sub    $0x1c,%esp
 804902b:	c7 44 24 04 20 8f 04 	movl   $0x8048f20,0x4(%esp)
 8049032:	08 
 8049033:	c7 04 24 02 00 00 00 	movl   $0x2,(%esp)
 804903a:	e8 91 f7 ff ff       	call   80487d0 <signal@plt>
 804903f:	83 c4 1c             	add    $0x1c,%esp
 8049042:	c3                   	ret    

08049043 <initialize_bomb_solve>:
 8049043:	f3 c3                	repz ret 

08049045 <blank_line>:
 8049045:	56                   	push   %esi
 8049046:	53                   	push   %ebx
 8049047:	83 ec 04             	sub    $0x4,%esp
 804904a:	8b 5c 24 10          	mov    0x10(%esp),%ebx
 804904e:	eb 16                	jmp    8049066 <blank_line+0x21>
 8049050:	e8 cb f8 ff ff       	call   8048920 <__ctype_b_loc@plt>
 8049055:	83 c3 01             	add    $0x1,%ebx
 8049058:	89 f2                	mov    %esi,%edx
 804905a:	0f be f2             	movsbl %dl,%esi
 804905d:	8b 00                	mov    (%eax),%eax
 804905f:	f6 44 70 01 20       	testb  $0x20,0x1(%eax,%esi,2)
 8049064:	74 10                	je     8049076 <blank_line+0x31>
 8049066:	0f b6 33             	movzbl (%ebx),%esi
 8049069:	89 f0                	mov    %esi,%eax
 804906b:	84 c0                	test   %al,%al
 804906d:	75 e1                	jne    8049050 <blank_line+0xb>
 804906f:	b8 01 00 00 00       	mov    $0x1,%eax
 8049074:	eb 05                	jmp    804907b <blank_line+0x36>
 8049076:	b8 00 00 00 00       	mov    $0x0,%eax
 804907b:	83 c4 04             	add    $0x4,%esp
 804907e:	5b                   	pop    %ebx
 804907f:	5e                   	pop    %esi
 8049080:	c3                   	ret    

08049081 <skip>:
 8049081:	53                   	push   %ebx
 8049082:	83 ec 18             	sub    $0x18,%esp
 8049085:	a1 cc b4 04 08       	mov    0x804b4cc,%eax
 804908a:	89 44 24 08          	mov    %eax,0x8(%esp)
 804908e:	c7 44 24 04 50 00 00 	movl   $0x50,0x4(%esp)
 8049095:	00 
 8049096:	a1 c8 b4 04 08       	mov    0x804b4c8,%eax
 804909b:	8d 04 80             	lea    (%eax,%eax,4),%eax
 804909e:	c1 e0 04             	shl    $0x4,%eax
 80490a1:	05 e0 b4 04 08       	add    $0x804b4e0,%eax
 80490a6:	89 04 24             	mov    %eax,(%esp)
 80490a9:	e8 12 f7 ff ff       	call   80487c0 <fgets@plt>
 80490ae:	89 c3                	mov    %eax,%ebx
 80490b0:	85 c0                	test   %eax,%eax
 80490b2:	74 0c                	je     80490c0 <skip+0x3f>
 80490b4:	89 04 24             	mov    %eax,(%esp)
 80490b7:	e8 89 ff ff ff       	call   8049045 <blank_line>
 80490bc:	85 c0                	test   %eax,%eax
 80490be:	75 c5                	jne    8049085 <skip+0x4>
 80490c0:	89 d8                	mov    %ebx,%eax
 80490c2:	83 c4 18             	add    $0x18,%esp
 80490c5:	5b                   	pop    %ebx
 80490c6:	c3                   	ret    

080490c7 <explode_bomb>:
 80490c7:	83 ec 1c             	sub    $0x1c,%esp
 80490ca:	c7 04 24 23 a2 04 08 	movl   $0x804a223,(%esp)
 80490d1:	e8 5a f7 ff ff       	call   8048830 <puts@plt>
 80490d6:	c7 04 24 2c a2 04 08 	movl   $0x804a22c,(%esp)
 80490dd:	e8 4e f7 ff ff       	call   8048830 <puts@plt>
 80490e2:	c7 04 24 08 00 00 00 	movl   $0x8,(%esp)
 80490e9:	e8 62 f7 ff ff       	call   8048850 <exit@plt>

080490ee <read_line>:
 80490ee:	83 ec 1c             	sub    $0x1c,%esp
 80490f1:	89 5c 24 10          	mov    %ebx,0x10(%esp)
 80490f5:	89 74 24 14          	mov    %esi,0x14(%esp)
 80490f9:	89 7c 24 18          	mov    %edi,0x18(%esp)
 80490fd:	e8 7f ff ff ff       	call   8049081 <skip>
 8049102:	85 c0                	test   %eax,%eax
 8049104:	75 6c                	jne    8049172 <read_line+0x84>
 8049106:	a1 a4 b4 04 08       	mov    0x804b4a4,%eax
 804910b:	39 05 cc b4 04 08    	cmp    %eax,0x804b4cc
 8049111:	75 18                	jne    804912b <read_line+0x3d>
 8049113:	c7 04 24 43 a2 04 08 	movl   $0x804a243,(%esp)
 804911a:	e8 11 f7 ff ff       	call   8048830 <puts@plt>
 804911f:	c7 04 24 08 00 00 00 	movl   $0x8,(%esp)
 8049126:	e8 25 f7 ff ff       	call   8048850 <exit@plt>
 804912b:	c7 04 24 61 a2 04 08 	movl   $0x804a261,(%esp)
 8049132:	e8 e9 f6 ff ff       	call   8048820 <getenv@plt>
 8049137:	85 c0                	test   %eax,%eax
 8049139:	74 0c                	je     8049147 <read_line+0x59>
 804913b:	c7 04 24 00 00 00 00 	movl   $0x0,(%esp)
 8049142:	e8 09 f7 ff ff       	call   8048850 <exit@plt>
 8049147:	a1 a4 b4 04 08       	mov    0x804b4a4,%eax
 804914c:	a3 cc b4 04 08       	mov    %eax,0x804b4cc
 8049151:	e8 2b ff ff ff       	call   8049081 <skip>
 8049156:	85 c0                	test   %eax,%eax
 8049158:	75 18                	jne    8049172 <read_line+0x84>
 804915a:	c7 04 24 43 a2 04 08 	movl   $0x804a243,(%esp)
 8049161:	e8 ca f6 ff ff       	call   8048830 <puts@plt>
 8049166:	c7 04 24 00 00 00 00 	movl   $0x0,(%esp)
 804916d:	e8 de f6 ff ff       	call   8048850 <exit@plt>
 8049172:	8b 15 c8 b4 04 08    	mov    0x804b4c8,%edx
 8049178:	8d 1c 92             	lea    (%edx,%edx,4),%ebx
 804917b:	c1 e3 04             	shl    $0x4,%ebx
 804917e:	81 c3 e0 b4 04 08    	add    $0x804b4e0,%ebx
 8049184:	89 df                	mov    %ebx,%edi
 8049186:	b8 00 00 00 00       	mov    $0x0,%eax
 804918b:	b9 ff ff ff ff       	mov    $0xffffffff,%ecx
 8049190:	f2 ae                	repnz scas %es:(%edi),%al
 8049192:	f7 d1                	not    %ecx
 8049194:	83 e9 01             	sub    $0x1,%ecx
 8049197:	83 f9 4e             	cmp    $0x4e,%ecx
 804919a:	7e 35                	jle    80491d1 <read_line+0xe3>
 804919c:	c7 04 24 6c a2 04 08 	movl   $0x804a26c,(%esp)
 80491a3:	e8 88 f6 ff ff       	call   8048830 <puts@plt>
 80491a8:	a1 c8 b4 04 08       	mov    0x804b4c8,%eax
 80491ad:	8d 50 01             	lea    0x1(%eax),%edx
 80491b0:	89 15 c8 b4 04 08    	mov    %edx,0x804b4c8
 80491b6:	6b c0 50             	imul   $0x50,%eax,%eax
 80491b9:	05 e0 b4 04 08       	add    $0x804b4e0,%eax
 80491be:	be 87 a2 04 08       	mov    $0x804a287,%esi
 80491c3:	b9 04 00 00 00       	mov    $0x4,%ecx
 80491c8:	89 c7                	mov    %eax,%edi
 80491ca:	f3 a5                	rep movsl %ds:(%esi),%es:(%edi)
 80491cc:	e8 f6 fe ff ff       	call   80490c7 <explode_bomb>
 80491d1:	8d 04 92             	lea    (%edx,%edx,4),%eax
 80491d4:	c1 e0 04             	shl    $0x4,%eax
 80491d7:	c6 84 01 df b4 04 08 	movb   $0x0,0x804b4df(%ecx,%eax,1)
 80491de:	00 
 80491df:	83 c2 01             	add    $0x1,%edx
 80491e2:	89 15 c8 b4 04 08    	mov    %edx,0x804b4c8
 80491e8:	89 d8                	mov    %ebx,%eax
 80491ea:	8b 5c 24 10          	mov    0x10(%esp),%ebx
 80491ee:	8b 74 24 14          	mov    0x14(%esp),%esi
 80491f2:	8b 7c 24 18          	mov    0x18(%esp),%edi
 80491f6:	83 c4 1c             	add    $0x1c,%esp
 80491f9:	c3                   	ret    

080491fa <read_six_numbers>:
 80491fa:	83 ec 2c             	sub    $0x2c,%esp
 80491fd:	8b 44 24 34          	mov    0x34(%esp),%eax
 8049201:	8d 50 14             	lea    0x14(%eax),%edx
 8049204:	89 54 24 1c          	mov    %edx,0x1c(%esp)
 8049208:	8d 50 10             	lea    0x10(%eax),%edx
 804920b:	89 54 24 18          	mov    %edx,0x18(%esp)
 804920f:	8d 50 0c             	lea    0xc(%eax),%edx
 8049212:	89 54 24 14          	mov    %edx,0x14(%esp)
 8049216:	8d 50 08             	lea    0x8(%eax),%edx
 8049219:	89 54 24 10          	mov    %edx,0x10(%esp)
 804921d:	8d 50 04             	lea    0x4(%eax),%edx
 8049220:	89 54 24 0c          	mov    %edx,0xc(%esp)
 8049224:	89 44 24 08          	mov    %eax,0x8(%esp)
 8049228:	c7 44 24 04 97 a2 04 	movl   $0x804a297,0x4(%esp)
 804922f:	08 
 8049230:	8b 44 24 30          	mov    0x30(%esp),%eax
 8049234:	89 04 24             	mov    %eax,(%esp)
 8049237:	e8 54 f6 ff ff       	call   8048890 <__isoc99_sscanf@plt>
 804923c:	83 f8 05             	cmp    $0x5,%eax
 804923f:	7f 05                	jg     8049246 <read_six_numbers+0x4c>
 8049241:	e8 81 fe ff ff       	call   80490c7 <explode_bomb>
 8049246:	83 c4 2c             	add    $0x2c,%esp
 8049249:	c3                   	ret    

0804924a <phase_defused>:
 804924a:	83 3d c8 b4 04 08 06 	cmpl   $0x6,0x804b4c8
 8049251:	75 7e                	jne    80492d1 <phase_defused+0x87>
 8049253:	81 ec 8c 00 00 00    	sub    $0x8c,%esp
 8049259:	8d 44 24 30          	lea    0x30(%esp),%eax
 804925d:	89 44 24 10          	mov    %eax,0x10(%esp)
 8049261:	8d 44 24 28          	lea    0x28(%esp),%eax
 8049265:	89 44 24 0c          	mov    %eax,0xc(%esp)
 8049269:	8d 44 24 2c          	lea    0x2c(%esp),%eax
 804926d:	89 44 24 08          	mov    %eax,0x8(%esp)
 8049271:	c7 44 24 04 a9 a2 04 	movl   $0x804a2a9,0x4(%esp)
 8049278:	08 
 8049279:	c7 04 24 d0 b5 04 08 	movl   $0x804b5d0,(%esp)
 8049280:	e8 0b f6 ff ff       	call   8048890 <__isoc99_sscanf@plt>
 8049285:	83 f8 03             	cmp    $0x3,%eax
 8049288:	75 35                	jne    80492bf <phase_defused+0x75>
 804928a:	c7 44 24 04 b2 a2 04 	movl   $0x804a2b2,0x4(%esp)
 8049291:	08 
 8049292:	8d 44 24 30          	lea    0x30(%esp),%eax
 8049296:	89 04 24             	mov    %eax,(%esp)
 8049299:	e8 1c fd ff ff       	call   8048fba <strings_not_equal>
 804929e:	85 c0                	test   %eax,%eax
 80492a0:	75 1d                	jne    80492bf <phase_defused+0x75>
 80492a2:	c7 04 24 78 a1 04 08 	movl   $0x804a178,(%esp)
 80492a9:	e8 82 f5 ff ff       	call   8048830 <puts@plt>
 80492ae:	c7 04 24 a0 a1 04 08 	movl   $0x804a1a0,(%esp)
 80492b5:	e8 76 f5 ff ff       	call   8048830 <puts@plt>
 80492ba:	e8 f1 fb ff ff       	call   8048eb0 <secret_phase>
 80492bf:	c7 04 24 d8 a1 04 08 	movl   $0x804a1d8,(%esp)
 80492c6:	e8 65 f5 ff ff       	call   8048830 <puts@plt>
 80492cb:	81 c4 8c 00 00 00    	add    $0x8c,%esp
 80492d1:	f3 c3                	repz ret 
 80492d3:	90                   	nop
 80492d4:	90                   	nop
 80492d5:	90                   	nop
 80492d6:	90                   	nop
 80492d7:	90                   	nop
 80492d8:	90                   	nop
 80492d9:	90                   	nop
 80492da:	90                   	nop
 80492db:	90                   	nop
 80492dc:	90                   	nop
 80492dd:	90                   	nop
 80492de:	90                   	nop
 80492df:	90                   	nop

080492e0 <rio_readlineb>:
 80492e0:	55                   	push   %ebp
 80492e1:	57                   	push   %edi
 80492e2:	56                   	push   %esi
 80492e3:	53                   	push   %ebx
 80492e4:	83 ec 3c             	sub    $0x3c,%esp
 80492e7:	83 f9 01             	cmp    $0x1,%ecx
 80492ea:	0f 86 cd 00 00 00    	jbe    80493bd <rio_readlineb+0xdd>
 80492f0:	89 c3                	mov    %eax,%ebx
 80492f2:	89 4c 24 1c          	mov    %ecx,0x1c(%esp)
 80492f6:	89 54 24 10          	mov    %edx,0x10(%esp)
 80492fa:	bd 01 00 00 00       	mov    $0x1,%ebp
 80492ff:	8d 78 0c             	lea    0xc(%eax),%edi
 8049302:	eb 38                	jmp    804933c <rio_readlineb+0x5c>
 8049304:	c7 44 24 08 00 20 00 	movl   $0x2000,0x8(%esp)
 804930b:	00 
 804930c:	89 7c 24 04          	mov    %edi,0x4(%esp)
 8049310:	8b 03                	mov    (%ebx),%eax
 8049312:	89 04 24             	mov    %eax,(%esp)
 8049315:	e8 66 f4 ff ff       	call   8048780 <read@plt>
 804931a:	89 43 04             	mov    %eax,0x4(%ebx)
 804931d:	85 c0                	test   %eax,%eax
 804931f:	79 14                	jns    8049335 <rio_readlineb+0x55>
 8049321:	e8 8a f5 ff ff       	call   80488b0 <__errno_location@plt>
 8049326:	83 38 04             	cmpl   $0x4,(%eax)
 8049329:	74 11                	je     804933c <rio_readlineb+0x5c>
 804932b:	90                   	nop
 804932c:	8d 74 26 00          	lea    0x0(%esi,%eiz,1),%esi
 8049330:	e9 9a 00 00 00       	jmp    80493cf <rio_readlineb+0xef>
 8049335:	85 c0                	test   %eax,%eax
 8049337:	74 6d                	je     80493a6 <rio_readlineb+0xc6>
 8049339:	89 7b 08             	mov    %edi,0x8(%ebx)
 804933c:	8b 73 04             	mov    0x4(%ebx),%esi
 804933f:	85 f6                	test   %esi,%esi
 8049341:	7e c1                	jle    8049304 <rio_readlineb+0x24>
 8049343:	85 f6                	test   %esi,%esi
 8049345:	0f 95 c0             	setne  %al
 8049348:	0f b6 c0             	movzbl %al,%eax
 804934b:	89 44 24 14          	mov    %eax,0x14(%esp)
 804934f:	8b 53 08             	mov    0x8(%ebx),%edx
 8049352:	89 54 24 18          	mov    %edx,0x18(%esp)
 8049356:	89 44 24 08          	mov    %eax,0x8(%esp)
 804935a:	89 54 24 04          	mov    %edx,0x4(%esp)
 804935e:	8d 44 24 2f          	lea    0x2f(%esp),%eax
 8049362:	89 04 24             	mov    %eax,(%esp)
 8049365:	e8 46 f4 ff ff       	call   80487b0 <memcpy@plt>
 804936a:	8b 44 24 18          	mov    0x18(%esp),%eax
 804936e:	03 44 24 14          	add    0x14(%esp),%eax
 8049372:	89 43 08             	mov    %eax,0x8(%ebx)
 8049375:	2b 74 24 14          	sub    0x14(%esp),%esi
 8049379:	89 73 04             	mov    %esi,0x4(%ebx)
 804937c:	83 7c 24 14 01       	cmpl   $0x1,0x14(%esp)
 8049381:	75 18                	jne    804939b <rio_readlineb+0xbb>
 8049383:	0f b6 44 24 2f       	movzbl 0x2f(%esp),%eax
 8049388:	8b 54 24 10          	mov    0x10(%esp),%edx
 804938c:	88 02                	mov    %al,(%edx)
 804938e:	83 c2 01             	add    $0x1,%edx
 8049391:	89 54 24 10          	mov    %edx,0x10(%esp)
 8049395:	3c 0a                	cmp    $0xa,%al
 8049397:	75 19                	jne    80493b2 <rio_readlineb+0xd2>
 8049399:	eb 2b                	jmp    80493c6 <rio_readlineb+0xe6>
 804939b:	83 7c 24 14 00       	cmpl   $0x0,0x14(%esp)
 80493a0:	75 34                	jne    80493d6 <rio_readlineb+0xf6>
 80493a2:	89 e8                	mov    %ebp,%eax
 80493a4:	eb 02                	jmp    80493a8 <rio_readlineb+0xc8>
 80493a6:	89 e8                	mov    %ebp,%eax
 80493a8:	83 f8 01             	cmp    $0x1,%eax
 80493ab:	75 19                	jne    80493c6 <rio_readlineb+0xe6>
 80493ad:	8d 76 00             	lea    0x0(%esi),%esi
 80493b0:	eb 2b                	jmp    80493dd <rio_readlineb+0xfd>
 80493b2:	83 c5 01             	add    $0x1,%ebp
 80493b5:	3b 6c 24 1c          	cmp    0x1c(%esp),%ebp
 80493b9:	75 81                	jne    804933c <rio_readlineb+0x5c>
 80493bb:	eb 09                	jmp    80493c6 <rio_readlineb+0xe6>
 80493bd:	89 54 24 10          	mov    %edx,0x10(%esp)
 80493c1:	bd 01 00 00 00       	mov    $0x1,%ebp
 80493c6:	8b 44 24 10          	mov    0x10(%esp),%eax
 80493ca:	c6 00 00             	movb   $0x0,(%eax)
 80493cd:	eb 13                	jmp    80493e2 <rio_readlineb+0x102>
 80493cf:	bd ff ff ff ff       	mov    $0xffffffff,%ebp
 80493d4:	eb 0c                	jmp    80493e2 <rio_readlineb+0x102>
 80493d6:	bd ff ff ff ff       	mov    $0xffffffff,%ebp
 80493db:	eb 05                	jmp    80493e2 <rio_readlineb+0x102>
 80493dd:	bd 00 00 00 00       	mov    $0x0,%ebp
 80493e2:	89 e8                	mov    %ebp,%eax
 80493e4:	83 c4 3c             	add    $0x3c,%esp
 80493e7:	5b                   	pop    %ebx
 80493e8:	5e                   	pop    %esi
 80493e9:	5f                   	pop    %edi
 80493ea:	5d                   	pop    %ebp
 80493eb:	c3                   	ret    

080493ec <sigalrm_handler>:
 80493ec:	83 ec 1c             	sub    $0x1c,%esp
 80493ef:	c7 44 24 08 00 00 00 	movl   $0x0,0x8(%esp)
 80493f6:	00 
 80493f7:	c7 44 24 04 08 a3 04 	movl   $0x804a308,0x4(%esp)
 80493fe:	08 
 80493ff:	a1 a0 b4 04 08       	mov    0x804b4a0,%eax
 8049404:	89 04 24             	mov    %eax,(%esp)
 8049407:	e8 64 f4 ff ff       	call   8048870 <fprintf@plt>
 804940c:	c7 04 24 01 00 00 00 	movl   $0x1,(%esp)
 8049413:	e8 38 f4 ff ff       	call   8048850 <exit@plt>

08049418 <submitr>:
 8049418:	55                   	push   %ebp
 8049419:	57                   	push   %edi
 804941a:	56                   	push   %esi
 804941b:	53                   	push   %ebx
 804941c:	81 ec 6c a0 00 00    	sub    $0xa06c,%esp
 8049422:	8b 9c 24 94 a0 00 00 	mov    0xa094(%esp),%ebx
 8049429:	c7 84 24 40 20 00 00 	movl   $0x0,0x2040(%esp)
 8049430:	00 00 00 00 
 8049434:	c7 44 24 08 00 00 00 	movl   $0x0,0x8(%esp)
 804943b:	00 
 804943c:	c7 44 24 04 01 00 00 	movl   $0x1,0x4(%esp)
 8049443:	00 
 8049444:	c7 04 24 02 00 00 00 	movl   $0x2,(%esp)
 804944b:	e8 80 f4 ff ff       	call   80488d0 <socket@plt>
 8049450:	89 c5                	mov    %eax,%ebp
 8049452:	85 c0                	test   %eax,%eax
 8049454:	79 55                	jns    80494ab <submitr+0x93>
 8049456:	8b 84 24 98 a0 00 00 	mov    0xa098(%esp),%eax
 804945d:	c7 00 45 72 72 6f    	movl   $0x6f727245,(%eax)
 8049463:	c7 40 04 72 3a 20 43 	movl   $0x43203a72,0x4(%eax)
 804946a:	c7 40 08 6c 69 65 6e 	movl   $0x6e65696c,0x8(%eax)
 8049471:	c7 40 0c 74 20 75 6e 	movl   $0x6e752074,0xc(%eax)
 8049478:	c7 40 10 61 62 6c 65 	movl   $0x656c6261,0x10(%eax)
 804947f:	c7 40 14 20 74 6f 20 	movl   $0x206f7420,0x14(%eax)
 8049486:	c7 40 18 63 72 65 61 	movl   $0x61657263,0x18(%eax)
 804948d:	c7 40 1c 74 65 20 73 	movl   $0x73206574,0x1c(%eax)
 8049494:	c7 40 20 6f 63 6b 65 	movl   $0x656b636f,0x20(%eax)
 804949b:	66 c7 40 24 74 00    	movw   $0x74,0x24(%eax)
 80494a1:	b8 ff ff ff ff       	mov    $0xffffffff,%eax
 80494a6:	e9 47 07 00 00       	jmp    8049bf2 <submitr+0x7da>
 80494ab:	8b 84 24 80 a0 00 00 	mov    0xa080(%esp),%eax
 80494b2:	89 04 24             	mov    %eax,(%esp)
 80494b5:	e8 26 f4 ff ff       	call   80488e0 <gethostbyname@plt>
 80494ba:	85 c0                	test   %eax,%eax
 80494bc:	75 6f                	jne    804952d <submitr+0x115>
 80494be:	8b 94 24 98 a0 00 00 	mov    0xa098(%esp),%edx
 80494c5:	c7 02 45 72 72 6f    	movl   $0x6f727245,(%edx)
 80494cb:	c7 42 04 72 3a 20 44 	movl   $0x44203a72,0x4(%edx)
 80494d2:	c7 42 08 4e 53 20 69 	movl   $0x6920534e,0x8(%edx)
 80494d9:	c7 42 0c 73 20 75 6e 	movl   $0x6e752073,0xc(%edx)
 80494e0:	c7 42 10 61 62 6c 65 	movl   $0x656c6261,0x10(%edx)
 80494e7:	c7 42 14 20 74 6f 20 	movl   $0x206f7420,0x14(%edx)
 80494ee:	c7 42 18 72 65 73 6f 	movl   $0x6f736572,0x18(%edx)
 80494f5:	c7 42 1c 6c 76 65 20 	movl   $0x2065766c,0x1c(%edx)
 80494fc:	c7 42 20 73 65 72 76 	movl   $0x76726573,0x20(%edx)
 8049503:	c7 42 24 65 72 20 61 	movl   $0x61207265,0x24(%edx)
 804950a:	c7 42 28 64 64 72 65 	movl   $0x65726464,0x28(%edx)
 8049511:	66 c7 42 2c 73 73    	movw   $0x7373,0x2c(%edx)
 8049517:	c6 42 2e 00          	movb   $0x0,0x2e(%edx)
 804951b:	89 2c 24             	mov    %ebp,(%esp)
 804951e:	e8 ed f3 ff ff       	call   8048910 <close@plt>
 8049523:	b8 ff ff ff ff       	mov    $0xffffffff,%eax
 8049528:	e9 c5 06 00 00       	jmp    8049bf2 <submitr+0x7da>
 804952d:	8d b4 24 50 a0 00 00 	lea    0xa050(%esp),%esi
 8049534:	c7 84 24 50 a0 00 00 	movl   $0x0,0xa050(%esp)
 804953b:	00 00 00 00 
 804953f:	c7 84 24 54 a0 00 00 	movl   $0x0,0xa054(%esp)
 8049546:	00 00 00 00 
 804954a:	c7 84 24 58 a0 00 00 	movl   $0x0,0xa058(%esp)
 8049551:	00 00 00 00 
 8049555:	c7 84 24 5c a0 00 00 	movl   $0x0,0xa05c(%esp)
 804955c:	00 00 00 00 
 8049560:	66 c7 84 24 50 a0 00 	movw   $0x2,0xa050(%esp)
 8049567:	00 02 00 
 804956a:	8b 50 0c             	mov    0xc(%eax),%edx
 804956d:	89 54 24 08          	mov    %edx,0x8(%esp)
 8049571:	8d 94 24 54 a0 00 00 	lea    0xa054(%esp),%edx
 8049578:	89 54 24 04          	mov    %edx,0x4(%esp)
 804957c:	8b 40 10             	mov    0x10(%eax),%eax
 804957f:	8b 00                	mov    (%eax),%eax
 8049581:	89 04 24             	mov    %eax,(%esp)
 8049584:	e8 77 f2 ff ff       	call   8048800 <bcopy@plt>
 8049589:	0f b7 84 24 84 a0 00 	movzwl 0xa084(%esp),%eax
 8049590:	00 
 8049591:	66 c1 c8 08          	ror    $0x8,%ax
 8049595:	66 89 84 24 52 a0 00 	mov    %ax,0xa052(%esp)
 804959c:	00 
 804959d:	c7 44 24 08 10 00 00 	movl   $0x10,0x8(%esp)
 80495a4:	00 
 80495a5:	89 74 24 04          	mov    %esi,0x4(%esp)
 80495a9:	89 2c 24             	mov    %ebp,(%esp)
 80495ac:	e8 4f f3 ff ff       	call   8048900 <connect@plt>
 80495b1:	85 c0                	test   %eax,%eax
 80495b3:	79 61                	jns    8049616 <submitr+0x1fe>
 80495b5:	8b 8c 24 98 a0 00 00 	mov    0xa098(%esp),%ecx
 80495bc:	c7 01 45 72 72 6f    	movl   $0x6f727245,(%ecx)
 80495c2:	c7 41 04 72 3a 20 55 	movl   $0x55203a72,0x4(%ecx)
 80495c9:	c7 41 08 6e 61 62 6c 	movl   $0x6c62616e,0x8(%ecx)
 80495d0:	c7 41 0c 65 20 74 6f 	movl   $0x6f742065,0xc(%ecx)
 80495d7:	c7 41 10 20 63 6f 6e 	movl   $0x6e6f6320,0x10(%ecx)
 80495de:	c7 41 14 6e 65 63 74 	movl   $0x7463656e,0x14(%ecx)
 80495e5:	c7 41 18 20 74 6f 20 	movl   $0x206f7420,0x18(%ecx)
 80495ec:	c7 41 1c 74 68 65 20 	movl   $0x20656874,0x1c(%ecx)
 80495f3:	c7 41 20 73 65 72 76 	movl   $0x76726573,0x20(%ecx)
 80495fa:	66 c7 41 24 65 72    	movw   $0x7265,0x24(%ecx)
 8049600:	c6 41 26 00          	movb   $0x0,0x26(%ecx)
 8049604:	89 2c 24             	mov    %ebp,(%esp)
 8049607:	e8 04 f3 ff ff       	call   8048910 <close@plt>
 804960c:	b8 ff ff ff ff       	mov    $0xffffffff,%eax
 8049611:	e9 dc 05 00 00       	jmp    8049bf2 <submitr+0x7da>
 8049616:	ba ff ff ff ff       	mov    $0xffffffff,%edx
 804961b:	89 df                	mov    %ebx,%edi
 804961d:	b8 00 00 00 00       	mov    $0x0,%eax
 8049622:	89 d1                	mov    %edx,%ecx
 8049624:	f2 ae                	repnz scas %es:(%edi),%al
 8049626:	89 ce                	mov    %ecx,%esi
 8049628:	f7 d6                	not    %esi
 804962a:	8b bc 24 88 a0 00 00 	mov    0xa088(%esp),%edi
 8049631:	89 d1                	mov    %edx,%ecx
 8049633:	f2 ae                	repnz scas %es:(%edi),%al
 8049635:	89 4c 24 28          	mov    %ecx,0x28(%esp)
 8049639:	8b bc 24 8c a0 00 00 	mov    0xa08c(%esp),%edi
 8049640:	89 d1                	mov    %edx,%ecx
 8049642:	f2 ae                	repnz scas %es:(%edi),%al
 8049644:	f7 d1                	not    %ecx
 8049646:	89 4c 24 2c          	mov    %ecx,0x2c(%esp)
 804964a:	8b bc 24 90 a0 00 00 	mov    0xa090(%esp),%edi
 8049651:	89 d1                	mov    %edx,%ecx
 8049653:	f2 ae                	repnz scas %es:(%edi),%al
 8049655:	8b 44 24 2c          	mov    0x2c(%esp),%eax
 8049659:	2b 44 24 28          	sub    0x28(%esp),%eax
 804965d:	89 c2                	mov    %eax,%edx
 804965f:	29 ca                	sub    %ecx,%edx
 8049661:	8d 44 76 fd          	lea    -0x3(%esi,%esi,2),%eax
 8049665:	8d 44 02 7b          	lea    0x7b(%edx,%eax,1),%eax
 8049669:	3d 00 20 00 00       	cmp    $0x2000,%eax
 804966e:	76 7a                	jbe    80496ea <submitr+0x2d2>
 8049670:	8b 84 24 98 a0 00 00 	mov    0xa098(%esp),%eax
 8049677:	c7 00 45 72 72 6f    	movl   $0x6f727245,(%eax)
 804967d:	c7 40 04 72 3a 20 52 	movl   $0x52203a72,0x4(%eax)
 8049684:	c7 40 08 65 73 75 6c 	movl   $0x6c757365,0x8(%eax)
 804968b:	c7 40 0c 74 20 73 74 	movl   $0x74732074,0xc(%eax)
 8049692:	c7 40 10 72 69 6e 67 	movl   $0x676e6972,0x10(%eax)
 8049699:	c7 40 14 20 74 6f 6f 	movl   $0x6f6f7420,0x14(%eax)
 80496a0:	c7 40 18 20 6c 61 72 	movl   $0x72616c20,0x18(%eax)
 80496a7:	c7 40 1c 67 65 2e 20 	movl   $0x202e6567,0x1c(%eax)
 80496ae:	c7 40 20 49 6e 63 72 	movl   $0x72636e49,0x20(%eax)
 80496b5:	c7 40 24 65 61 73 65 	movl   $0x65736165,0x24(%eax)
 80496bc:	c7 40 28 20 53 55 42 	movl   $0x42555320,0x28(%eax)
 80496c3:	c7 40 2c 4d 49 54 52 	movl   $0x5254494d,0x2c(%eax)
 80496ca:	c7 40 30 5f 4d 41 58 	movl   $0x58414d5f,0x30(%eax)
 80496d1:	c7 40 34 42 55 46 00 	movl   $0x465542,0x34(%eax)
 80496d8:	89 2c 24             	mov    %ebp,(%esp)
 80496db:	e8 30 f2 ff ff       	call   8048910 <close@plt>
 80496e0:	b8 ff ff ff ff       	mov    $0xffffffff,%eax
 80496e5:	e9 08 05 00 00       	jmp    8049bf2 <submitr+0x7da>
 80496ea:	8d 94 24 44 40 00 00 	lea    0x4044(%esp),%edx
 80496f1:	b9 00 08 00 00       	mov    $0x800,%ecx
 80496f6:	b8 00 00 00 00       	mov    $0x0,%eax
 80496fb:	89 d7                	mov    %edx,%edi
 80496fd:	f3 ab                	rep stos %eax,%es:(%edi)
 80496ff:	89 df                	mov    %ebx,%edi
 8049701:	b9 ff ff ff ff       	mov    $0xffffffff,%ecx
 8049706:	f2 ae                	repnz scas %es:(%edi),%al
 8049708:	f7 d1                	not    %ecx
 804970a:	89 cf                	mov    %ecx,%edi
 804970c:	83 ef 01             	sub    $0x1,%edi
 804970f:	0f 84 f3 03 00 00    	je     8049b08 <submitr+0x6f0>
 8049715:	89 d6                	mov    %edx,%esi
 8049717:	0f b6 03             	movzbl (%ebx),%eax
 804971a:	3c 2d                	cmp    $0x2d,%al
 804971c:	74 24                	je     8049742 <submitr+0x32a>
 804971e:	3c 2a                	cmp    $0x2a,%al
 8049720:	74 20                	je     8049742 <submitr+0x32a>
 8049722:	3c 2e                	cmp    $0x2e,%al
 8049724:	74 1c                	je     8049742 <submitr+0x32a>
 8049726:	3c 5f                	cmp    $0x5f,%al
 8049728:	74 18                	je     8049742 <submitr+0x32a>
 804972a:	8d 50 d0             	lea    -0x30(%eax),%edx
 804972d:	80 fa 09             	cmp    $0x9,%dl
 8049730:	76 10                	jbe    8049742 <submitr+0x32a>
 8049732:	8d 50 bf             	lea    -0x41(%eax),%edx
 8049735:	80 fa 19             	cmp    $0x19,%dl
 8049738:	76 08                	jbe    8049742 <submitr+0x32a>
 804973a:	8d 50 9f             	lea    -0x61(%eax),%edx
 804973d:	80 fa 19             	cmp    $0x19,%dl
 8049740:	77 07                	ja     8049749 <submitr+0x331>
 8049742:	88 06                	mov    %al,(%esi)
 8049744:	83 c6 01             	add    $0x1,%esi
 8049747:	eb 51                	jmp    804979a <submitr+0x382>
 8049749:	3c 20                	cmp    $0x20,%al
 804974b:	75 08                	jne    8049755 <submitr+0x33d>
 804974d:	c6 06 2b             	movb   $0x2b,(%esi)
 8049750:	83 c6 01             	add    $0x1,%esi
 8049753:	eb 45                	jmp    804979a <submitr+0x382>
 8049755:	8d 50 e0             	lea    -0x20(%eax),%edx
 8049758:	80 fa 5f             	cmp    $0x5f,%dl
 804975b:	76 08                	jbe    8049765 <submitr+0x34d>
 804975d:	3c 09                	cmp    $0x9,%al
 804975f:	0f 85 0d 04 00 00    	jne    8049b72 <submitr+0x75a>
 8049765:	0f b6 c0             	movzbl %al,%eax
 8049768:	89 44 24 08          	mov    %eax,0x8(%esp)
 804976c:	c7 44 24 04 14 a4 04 	movl   $0x804a414,0x4(%esp)
 8049773:	08 
 8049774:	8d 54 24 38          	lea    0x38(%esp),%edx
 8049778:	89 14 24             	mov    %edx,(%esp)
 804977b:	e8 40 f1 ff ff       	call   80488c0 <sprintf@plt>
 8049780:	0f b6 44 24 38       	movzbl 0x38(%esp),%eax
 8049785:	88 06                	mov    %al,(%esi)
 8049787:	0f b6 44 24 39       	movzbl 0x39(%esp),%eax
 804978c:	88 46 01             	mov    %al,0x1(%esi)
 804978f:	0f b6 44 24 3a       	movzbl 0x3a(%esp),%eax
 8049794:	88 46 02             	mov    %al,0x2(%esi)
 8049797:	83 c6 03             	add    $0x3,%esi
 804979a:	83 c3 01             	add    $0x1,%ebx
 804979d:	83 ef 01             	sub    $0x1,%edi
 80497a0:	0f 85 71 ff ff ff    	jne    8049717 <submitr+0x2ff>
 80497a6:	e9 5d 03 00 00       	jmp    8049b08 <submitr+0x6f0>
 80497ab:	89 5c 24 08          	mov    %ebx,0x8(%esp)
 80497af:	89 74 24 04          	mov    %esi,0x4(%esp)
 80497b3:	89 2c 24             	mov    %ebp,(%esp)
 80497b6:	e8 c5 f0 ff ff       	call   8048880 <write@plt>
 80497bb:	85 c0                	test   %eax,%eax
 80497bd:	7f 0f                	jg     80497ce <submitr+0x3b6>
 80497bf:	e8 ec f0 ff ff       	call   80488b0 <__errno_location@plt>
 80497c4:	83 38 04             	cmpl   $0x4,(%eax)
 80497c7:	75 0f                	jne    80497d8 <submitr+0x3c0>
 80497c9:	b8 00 00 00 00       	mov    $0x0,%eax
 80497ce:	01 c6                	add    %eax,%esi
 80497d0:	29 c3                	sub    %eax,%ebx
 80497d2:	75 d7                	jne    80497ab <submitr+0x393>
 80497d4:	85 ff                	test   %edi,%edi
 80497d6:	79 65                	jns    804983d <submitr+0x425>
 80497d8:	8b 8c 24 98 a0 00 00 	mov    0xa098(%esp),%ecx
 80497df:	c7 01 45 72 72 6f    	movl   $0x6f727245,(%ecx)
 80497e5:	c7 41 04 72 3a 20 43 	movl   $0x43203a72,0x4(%ecx)
 80497ec:	c7 41 08 6c 69 65 6e 	movl   $0x6e65696c,0x8(%ecx)
 80497f3:	c7 41 0c 74 20 75 6e 	movl   $0x6e752074,0xc(%ecx)
 80497fa:	c7 41 10 61 62 6c 65 	movl   $0x656c6261,0x10(%ecx)
 8049801:	c7 41 14 20 74 6f 20 	movl   $0x206f7420,0x14(%ecx)
 8049808:	c7 41 18 77 72 69 74 	movl   $0x74697277,0x18(%ecx)
 804980f:	c7 41 1c 65 20 74 6f 	movl   $0x6f742065,0x1c(%ecx)
 8049816:	c7 41 20 20 74 68 65 	movl   $0x65687420,0x20(%ecx)
 804981d:	c7 41 24 20 73 65 72 	movl   $0x72657320,0x24(%ecx)
 8049824:	c7 41 28 76 65 72 00 	movl   $0x726576,0x28(%ecx)
 804982b:	89 2c 24             	mov    %ebp,(%esp)
 804982e:	e8 dd f0 ff ff       	call   8048910 <close@plt>
 8049833:	b8 ff ff ff ff       	mov    $0xffffffff,%eax
 8049838:	e9 b5 03 00 00       	jmp    8049bf2 <submitr+0x7da>
 804983d:	89 ac 24 44 80 00 00 	mov    %ebp,0x8044(%esp)
 8049844:	c7 84 24 48 80 00 00 	movl   $0x0,0x8048(%esp)
 804984b:	00 00 00 00 
 804984f:	8d 84 24 50 80 00 00 	lea    0x8050(%esp),%eax
 8049856:	89 84 24 4c 80 00 00 	mov    %eax,0x804c(%esp)
 804985d:	b9 00 20 00 00       	mov    $0x2000,%ecx
 8049862:	8d 94 24 44 60 00 00 	lea    0x6044(%esp),%edx
 8049869:	8d 84 24 44 80 00 00 	lea    0x8044(%esp),%eax
 8049870:	e8 6b fa ff ff       	call   80492e0 <rio_readlineb>
 8049875:	85 c0                	test   %eax,%eax
 8049877:	7f 79                	jg     80498f2 <submitr+0x4da>
 8049879:	8b 84 24 98 a0 00 00 	mov    0xa098(%esp),%eax
 8049880:	c7 00 45 72 72 6f    	movl   $0x6f727245,(%eax)
 8049886:	c7 40 04 72 3a 20 43 	movl   $0x43203a72,0x4(%eax)
 804988d:	c7 40 08 6c 69 65 6e 	movl   $0x6e65696c,0x8(%eax)
 8049894:	c7 40 0c 74 20 75 6e 	movl   $0x6e752074,0xc(%eax)
 804989b:	c7 40 10 61 62 6c 65 	movl   $0x656c6261,0x10(%eax)
 80498a2:	c7 40 14 20 74 6f 20 	movl   $0x206f7420,0x14(%eax)
 80498a9:	c7 40 18 72 65 61 64 	movl   $0x64616572,0x18(%eax)
 80498b0:	c7 40 1c 20 66 69 72 	movl   $0x72696620,0x1c(%eax)
 80498b7:	c7 40 20 73 74 20 68 	movl   $0x68207473,0x20(%eax)
 80498be:	c7 40 24 65 61 64 65 	movl   $0x65646165,0x24(%eax)
 80498c5:	c7 40 28 72 20 66 72 	movl   $0x72662072,0x28(%eax)
 80498cc:	c7 40 2c 6f 6d 20 73 	movl   $0x73206d6f,0x2c(%eax)
 80498d3:	c7 40 30 65 72 76 65 	movl   $0x65767265,0x30(%eax)
 80498da:	66 c7 40 34 72 00    	movw   $0x72,0x34(%eax)
 80498e0:	89 2c 24             	mov    %ebp,(%esp)
 80498e3:	e8 28 f0 ff ff       	call   8048910 <close@plt>
 80498e8:	b8 ff ff ff ff       	mov    $0xffffffff,%eax
 80498ed:	e9 00 03 00 00       	jmp    8049bf2 <submitr+0x7da>
 80498f2:	8d 44 24 40          	lea    0x40(%esp),%eax
 80498f6:	89 44 24 10          	mov    %eax,0x10(%esp)
 80498fa:	8d 84 24 40 20 00 00 	lea    0x2040(%esp),%eax
 8049901:	89 44 24 0c          	mov    %eax,0xc(%esp)
 8049905:	8d 84 24 44 20 00 00 	lea    0x2044(%esp),%eax
 804990c:	89 44 24 08          	mov    %eax,0x8(%esp)
 8049910:	c7 44 24 04 1b a4 04 	movl   $0x804a41b,0x4(%esp)
 8049917:	08 
 8049918:	8d 84 24 44 60 00 00 	lea    0x6044(%esp),%eax
 804991f:	89 04 24             	mov    %eax,(%esp)
 8049922:	e8 69 ef ff ff       	call   8048890 <__isoc99_sscanf@plt>
 8049927:	8b 84 24 40 20 00 00 	mov    0x2040(%esp),%eax
 804992e:	3d c8 00 00 00       	cmp    $0xc8,%eax
 8049933:	0f 84 c1 00 00 00    	je     80499fa <submitr+0x5e2>
 8049939:	8d 54 24 40          	lea    0x40(%esp),%edx
 804993d:	89 54 24 0c          	mov    %edx,0xc(%esp)
 8049941:	89 44 24 08          	mov    %eax,0x8(%esp)
 8049945:	c7 44 24 04 2c a3 04 	movl   $0x804a32c,0x4(%esp)
 804994c:	08 
 804994d:	8b 94 24 98 a0 00 00 	mov    0xa098(%esp),%edx
 8049954:	89 14 24             	mov    %edx,(%esp)
 8049957:	e8 64 ef ff ff       	call   80488c0 <sprintf@plt>
 804995c:	89 2c 24             	mov    %ebp,(%esp)
 804995f:	e8 ac ef ff ff       	call   8048910 <close@plt>
 8049964:	b8 ff ff ff ff       	mov    $0xffffffff,%eax
 8049969:	e9 84 02 00 00       	jmp    8049bf2 <submitr+0x7da>
 804996e:	b9 00 20 00 00       	mov    $0x2000,%ecx
 8049973:	8d 94 24 44 60 00 00 	lea    0x6044(%esp),%edx
 804997a:	8d 84 24 44 80 00 00 	lea    0x8044(%esp),%eax
 8049981:	e8 5a f9 ff ff       	call   80492e0 <rio_readlineb>
 8049986:	85 c0                	test   %eax,%eax
 8049988:	7f 70                	jg     80499fa <submitr+0x5e2>
 804998a:	8b 8c 24 98 a0 00 00 	mov    0xa098(%esp),%ecx
 8049991:	c7 01 45 72 72 6f    	movl   $0x6f727245,(%ecx)
 8049997:	c7 41 04 72 3a 20 43 	movl   $0x43203a72,0x4(%ecx)
 804999e:	c7 41 08 6c 69 65 6e 	movl   $0x6e65696c,0x8(%ecx)
 80499a5:	c7 41 0c 74 20 75 6e 	movl   $0x6e752074,0xc(%ecx)
 80499ac:	c7 41 10 61 62 6c 65 	movl   $0x656c6261,0x10(%ecx)
 80499b3:	c7 41 14 20 74 6f 20 	movl   $0x206f7420,0x14(%ecx)
 80499ba:	c7 41 18 72 65 61 64 	movl   $0x64616572,0x18(%ecx)
 80499c1:	c7 41 1c 20 68 65 61 	movl   $0x61656820,0x1c(%ecx)
 80499c8:	c7 41 20 64 65 72 73 	movl   $0x73726564,0x20(%ecx)
 80499cf:	c7 41 24 20 66 72 6f 	movl   $0x6f726620,0x24(%ecx)
 80499d6:	c7 41 28 6d 20 73 65 	movl   $0x6573206d,0x28(%ecx)
 80499dd:	c7 41 2c 72 76 65 72 	movl   $0x72657672,0x2c(%ecx)
 80499e4:	c6 41 30 00          	movb   $0x0,0x30(%ecx)
 80499e8:	89 2c 24             	mov    %ebp,(%esp)
 80499eb:	e8 20 ef ff ff       	call   8048910 <close@plt>
 80499f0:	b8 ff ff ff ff       	mov    $0xffffffff,%eax
 80499f5:	e9 f8 01 00 00       	jmp    8049bf2 <submitr+0x7da>
 80499fa:	80 bc 24 44 60 00 00 	cmpb   $0xd,0x6044(%esp)
 8049a01:	0d 
 8049a02:	0f 85 66 ff ff ff    	jne    804996e <submitr+0x556>
 8049a08:	80 bc 24 45 60 00 00 	cmpb   $0xa,0x6045(%esp)
 8049a0f:	0a 
 8049a10:	0f 85 58 ff ff ff    	jne    804996e <submitr+0x556>
 8049a16:	80 bc 24 46 60 00 00 	cmpb   $0x0,0x6046(%esp)
 8049a1d:	00 
 8049a1e:	0f 85 4a ff ff ff    	jne    804996e <submitr+0x556>
 8049a24:	b9 00 20 00 00       	mov    $0x2000,%ecx
 8049a29:	8d 94 24 44 60 00 00 	lea    0x6044(%esp),%edx
 8049a30:	8d 84 24 44 80 00 00 	lea    0x8044(%esp),%eax
 8049a37:	e8 a4 f8 ff ff       	call   80492e0 <rio_readlineb>
 8049a3c:	85 c0                	test   %eax,%eax
 8049a3e:	7f 7a                	jg     8049aba <submitr+0x6a2>
 8049a40:	8b 84 24 98 a0 00 00 	mov    0xa098(%esp),%eax
 8049a47:	c7 00 45 72 72 6f    	movl   $0x6f727245,(%eax)
 8049a4d:	c7 40 04 72 3a 20 43 	movl   $0x43203a72,0x4(%eax)
 8049a54:	c7 40 08 6c 69 65 6e 	movl   $0x6e65696c,0x8(%eax)
 8049a5b:	c7 40 0c 74 20 75 6e 	movl   $0x6e752074,0xc(%eax)
 8049a62:	c7 40 10 61 62 6c 65 	movl   $0x656c6261,0x10(%eax)
 8049a69:	c7 40 14 20 74 6f 20 	movl   $0x206f7420,0x14(%eax)
 8049a70:	c7 40 18 72 65 61 64 	movl   $0x64616572,0x18(%eax)
 8049a77:	c7 40 1c 20 73 74 61 	movl   $0x61747320,0x1c(%eax)
 8049a7e:	c7 40 20 74 75 73 20 	movl   $0x20737574,0x20(%eax)
 8049a85:	c7 40 24 6d 65 73 73 	movl   $0x7373656d,0x24(%eax)
 8049a8c:	c7 40 28 61 67 65 20 	movl   $0x20656761,0x28(%eax)
 8049a93:	c7 40 2c 66 72 6f 6d 	movl   $0x6d6f7266,0x2c(%eax)
 8049a9a:	c7 40 30 20 73 65 72 	movl   $0x72657320,0x30(%eax)
 8049aa1:	c7 40 34 76 65 72 00 	movl   $0x726576,0x34(%eax)
 8049aa8:	89 2c 24             	mov    %ebp,(%esp)
 8049aab:	e8 60 ee ff ff       	call   8048910 <close@plt>
 8049ab0:	b8 ff ff ff ff       	mov    $0xffffffff,%eax
 8049ab5:	e9 38 01 00 00       	jmp    8049bf2 <submitr+0x7da>
 8049aba:	8d 84 24 44 60 00 00 	lea    0x6044(%esp),%eax
 8049ac1:	89 44 24 04          	mov    %eax,0x4(%esp)
 8049ac5:	8b 94 24 98 a0 00 00 	mov    0xa098(%esp),%edx
 8049acc:	89 14 24             	mov    %edx,(%esp)
 8049acf:	e8 3c ed ff ff       	call   8048810 <strcpy@plt>
 8049ad4:	89 2c 24             	mov    %ebp,(%esp)
 8049ad7:	e8 34 ee ff ff       	call   8048910 <close@plt>
 8049adc:	b8 ff ff ff ff       	mov    $0xffffffff,%eax
 8049ae1:	8b 8c 24 98 a0 00 00 	mov    0xa098(%esp),%ecx
 8049ae8:	80 39 4f             	cmpb   $0x4f,(%ecx)
 8049aeb:	0f 85 01 01 00 00    	jne    8049bf2 <submitr+0x7da>
 8049af1:	80 79 01 4b          	cmpb   $0x4b,0x1(%ecx)
 8049af5:	0f 85 f7 00 00 00    	jne    8049bf2 <submitr+0x7da>
 8049afb:	80 79 02 01          	cmpb   $0x1,0x2(%ecx)
 8049aff:	19 c0                	sbb    %eax,%eax
 8049b01:	f7 d0                	not    %eax
 8049b03:	e9 ea 00 00 00       	jmp    8049bf2 <submitr+0x7da>
 8049b08:	8d 84 24 44 40 00 00 	lea    0x4044(%esp),%eax
 8049b0f:	89 44 24 14          	mov    %eax,0x14(%esp)
 8049b13:	8b 84 24 90 a0 00 00 	mov    0xa090(%esp),%eax
 8049b1a:	89 44 24 10          	mov    %eax,0x10(%esp)
 8049b1e:	8b 94 24 8c a0 00 00 	mov    0xa08c(%esp),%edx
 8049b25:	89 54 24 0c          	mov    %edx,0xc(%esp)
 8049b29:	8b 8c 24 88 a0 00 00 	mov    0xa088(%esp),%ecx
 8049b30:	89 4c 24 08          	mov    %ecx,0x8(%esp)
 8049b34:	c7 44 24 04 5c a3 04 	movl   $0x804a35c,0x4(%esp)
 8049b3b:	08 
 8049b3c:	8d bc 24 44 60 00 00 	lea    0x6044(%esp),%edi
 8049b43:	89 3c 24             	mov    %edi,(%esp)
 8049b46:	e8 75 ed ff ff       	call   80488c0 <sprintf@plt>
 8049b4b:	b8 00 00 00 00       	mov    $0x0,%eax
 8049b50:	b9 ff ff ff ff       	mov    $0xffffffff,%ecx
 8049b55:	f2 ae                	repnz scas %es:(%edi),%al
 8049b57:	f7 d1                	not    %ecx
 8049b59:	8d 79 ff             	lea    -0x1(%ecx),%edi
 8049b5c:	89 fb                	mov    %edi,%ebx
 8049b5e:	8d b4 24 44 60 00 00 	lea    0x6044(%esp),%esi
 8049b65:	85 ff                	test   %edi,%edi
 8049b67:	0f 85 3e fc ff ff    	jne    80497ab <submitr+0x393>
 8049b6d:	e9 cb fc ff ff       	jmp    804983d <submitr+0x425>
 8049b72:	8b bc 24 98 a0 00 00 	mov    0xa098(%esp),%edi
 8049b79:	be a8 a3 04 08       	mov    $0x804a3a8,%esi
 8049b7e:	b8 43 00 00 00       	mov    $0x43,%eax
 8049b83:	f7 c7 01 00 00 00    	test   $0x1,%edi
 8049b89:	74 1d                	je     8049ba8 <submitr+0x790>
 8049b8b:	0f b6 05 a8 a3 04 08 	movzbl 0x804a3a8,%eax
 8049b92:	88 07                	mov    %al,(%edi)
 8049b94:	8b bc 24 98 a0 00 00 	mov    0xa098(%esp),%edi
 8049b9b:	83 c7 01             	add    $0x1,%edi
 8049b9e:	be a9 a3 04 08       	mov    $0x804a3a9,%esi
 8049ba3:	b8 42 00 00 00       	mov    $0x42,%eax
 8049ba8:	f7 c7 02 00 00 00    	test   $0x2,%edi
 8049bae:	74 0f                	je     8049bbf <submitr+0x7a7>
 8049bb0:	0f b7 16             	movzwl (%esi),%edx
 8049bb3:	66 89 17             	mov    %dx,(%edi)
 8049bb6:	83 c7 02             	add    $0x2,%edi
 8049bb9:	83 c6 02             	add    $0x2,%esi
 8049bbc:	83 e8 02             	sub    $0x2,%eax
 8049bbf:	89 c1                	mov    %eax,%ecx
 8049bc1:	c1 e9 02             	shr    $0x2,%ecx
 8049bc4:	f3 a5                	rep movsl %ds:(%esi),%es:(%edi)
 8049bc6:	ba 00 00 00 00       	mov    $0x0,%edx
 8049bcb:	a8 02                	test   $0x2,%al
 8049bcd:	74 0b                	je     8049bda <submitr+0x7c2>
 8049bcf:	0f b7 16             	movzwl (%esi),%edx
 8049bd2:	66 89 17             	mov    %dx,(%edi)
 8049bd5:	ba 02 00 00 00       	mov    $0x2,%edx
 8049bda:	a8 01                	test   $0x1,%al
 8049bdc:	74 07                	je     8049be5 <submitr+0x7cd>
 8049bde:	0f b6 04 16          	movzbl (%esi,%edx,1),%eax
 8049be2:	88 04 17             	mov    %al,(%edi,%edx,1)
 8049be5:	89 2c 24             	mov    %ebp,(%esp)
 8049be8:	e8 23 ed ff ff       	call   8048910 <close@plt>
 8049bed:	b8 ff ff ff ff       	mov    $0xffffffff,%eax
 8049bf2:	81 c4 6c a0 00 00    	add    $0xa06c,%esp
 8049bf8:	5b                   	pop    %ebx
 8049bf9:	5e                   	pop    %esi
 8049bfa:	5f                   	pop    %edi
 8049bfb:	5d                   	pop    %ebp
 8049bfc:	c3                   	ret    

08049bfd <init_timeout>:
 8049bfd:	53                   	push   %ebx
 8049bfe:	83 ec 18             	sub    $0x18,%esp
 8049c01:	8b 5c 24 20          	mov    0x20(%esp),%ebx
 8049c05:	85 db                	test   %ebx,%ebx
 8049c07:	74 25                	je     8049c2e <init_timeout+0x31>
 8049c09:	c7 44 24 04 ec 93 04 	movl   $0x80493ec,0x4(%esp)
 8049c10:	08 
 8049c11:	c7 04 24 0e 00 00 00 	movl   $0xe,(%esp)
 8049c18:	e8 b3 eb ff ff       	call   80487d0 <signal@plt>
 8049c1d:	89 d8                	mov    %ebx,%eax
 8049c1f:	c1 f8 1f             	sar    $0x1f,%eax
 8049c22:	f7 d0                	not    %eax
 8049c24:	21 c3                	and    %eax,%ebx
 8049c26:	89 1c 24             	mov    %ebx,(%esp)
 8049c29:	e8 c2 eb ff ff       	call   80487f0 <alarm@plt>
 8049c2e:	83 c4 18             	add    $0x18,%esp
 8049c31:	5b                   	pop    %ebx
 8049c32:	c3                   	ret    

08049c33 <init_driver>:
 8049c33:	57                   	push   %edi
 8049c34:	56                   	push   %esi
 8049c35:	53                   	push   %ebx
 8049c36:	83 ec 20             	sub    $0x20,%esp
 8049c39:	8b 74 24 30          	mov    0x30(%esp),%esi
 8049c3d:	c7 44 24 04 01 00 00 	movl   $0x1,0x4(%esp)
 8049c44:	00 
 8049c45:	c7 04 24 0d 00 00 00 	movl   $0xd,(%esp)
 8049c4c:	e8 7f eb ff ff       	call   80487d0 <signal@plt>
 8049c51:	c7 44 24 04 01 00 00 	movl   $0x1,0x4(%esp)
 8049c58:	00 
 8049c59:	c7 04 24 1d 00 00 00 	movl   $0x1d,(%esp)
 8049c60:	e8 6b eb ff ff       	call   80487d0 <signal@plt>
 8049c65:	c7 44 24 04 01 00 00 	movl   $0x1,0x4(%esp)
 8049c6c:	00 
 8049c6d:	c7 04 24 1d 00 00 00 	movl   $0x1d,(%esp)
 8049c74:	e8 57 eb ff ff       	call   80487d0 <signal@plt>
 8049c79:	c7 44 24 08 00 00 00 	movl   $0x0,0x8(%esp)
 8049c80:	00 
 8049c81:	c7 44 24 04 01 00 00 	movl   $0x1,0x4(%esp)
 8049c88:	00 
 8049c89:	c7 04 24 02 00 00 00 	movl   $0x2,(%esp)
 8049c90:	e8 3b ec ff ff       	call   80488d0 <socket@plt>
 8049c95:	89 c3                	mov    %eax,%ebx
 8049c97:	85 c0                	test   %eax,%eax
 8049c99:	79 4e                	jns    8049ce9 <init_driver+0xb6>
 8049c9b:	c7 06 45 72 72 6f    	movl   $0x6f727245,(%esi)
 8049ca1:	c7 46 04 72 3a 20 43 	movl   $0x43203a72,0x4(%esi)
 8049ca8:	c7 46 08 6c 69 65 6e 	movl   $0x6e65696c,0x8(%esi)
 8049caf:	c7 46 0c 74 20 75 6e 	movl   $0x6e752074,0xc(%esi)
 8049cb6:	c7 46 10 61 62 6c 65 	movl   $0x656c6261,0x10(%esi)
 8049cbd:	c7 46 14 20 74 6f 20 	movl   $0x206f7420,0x14(%esi)
 8049cc4:	c7 46 18 63 72 65 61 	movl   $0x61657263,0x18(%esi)
 8049ccb:	c7 46 1c 74 65 20 73 	movl   $0x73206574,0x1c(%esi)
 8049cd2:	c7 46 20 6f 63 6b 65 	movl   $0x656b636f,0x20(%esi)
 8049cd9:	66 c7 46 24 74 00    	movw   $0x74,0x24(%esi)
 8049cdf:	b8 ff ff ff ff       	mov    $0xffffffff,%eax
 8049ce4:	e9 1b 01 00 00       	jmp    8049e04 <init_driver+0x1d1>
 8049ce9:	c7 04 24 2c a4 04 08 	movl   $0x804a42c,(%esp)
 8049cf0:	e8 eb eb ff ff       	call   80488e0 <gethostbyname@plt>
 8049cf5:	85 c0                	test   %eax,%eax
 8049cf7:	75 68                	jne    8049d61 <init_driver+0x12e>
 8049cf9:	c7 06 45 72 72 6f    	movl   $0x6f727245,(%esi)
 8049cff:	c7 46 04 72 3a 20 44 	movl   $0x44203a72,0x4(%esi)
 8049d06:	c7 46 08 4e 53 20 69 	movl   $0x6920534e,0x8(%esi)
 8049d0d:	c7 46 0c 73 20 75 6e 	movl   $0x6e752073,0xc(%esi)
 8049d14:	c7 46 10 61 62 6c 65 	movl   $0x656c6261,0x10(%esi)
 8049d1b:	c7 46 14 20 74 6f 20 	movl   $0x206f7420,0x14(%esi)
 8049d22:	c7 46 18 72 65 73 6f 	movl   $0x6f736572,0x18(%esi)
 8049d29:	c7 46 1c 6c 76 65 20 	movl   $0x2065766c,0x1c(%esi)
 8049d30:	c7 46 20 73 65 72 76 	movl   $0x76726573,0x20(%esi)
 8049d37:	c7 46 24 65 72 20 61 	movl   $0x61207265,0x24(%esi)
 8049d3e:	c7 46 28 64 64 72 65 	movl   $0x65726464,0x28(%esi)
 8049d45:	66 c7 46 2c 73 73    	movw   $0x7373,0x2c(%esi)
 8049d4b:	c6 46 2e 00          	movb   $0x0,0x2e(%esi)
 8049d4f:	89 1c 24             	mov    %ebx,(%esp)
 8049d52:	e8 b9 eb ff ff       	call   8048910 <close@plt>
 8049d57:	b8 ff ff ff ff       	mov    $0xffffffff,%eax
 8049d5c:	e9 a3 00 00 00       	jmp    8049e04 <init_driver+0x1d1>
 8049d61:	8d 7c 24 10          	lea    0x10(%esp),%edi
 8049d65:	c7 44 24 10 00 00 00 	movl   $0x0,0x10(%esp)
 8049d6c:	00 
 8049d6d:	c7 44 24 14 00 00 00 	movl   $0x0,0x14(%esp)
 8049d74:	00 
 8049d75:	c7 44 24 18 00 00 00 	movl   $0x0,0x18(%esp)
 8049d7c:	00 
 8049d7d:	c7 44 24 1c 00 00 00 	movl   $0x0,0x1c(%esp)
 8049d84:	00 
 8049d85:	66 c7 44 24 10 02 00 	movw   $0x2,0x10(%esp)
 8049d8c:	8b 50 0c             	mov    0xc(%eax),%edx
 8049d8f:	89 54 24 08          	mov    %edx,0x8(%esp)
 8049d93:	8d 54 24 14          	lea    0x14(%esp),%edx
 8049d97:	89 54 24 04          	mov    %edx,0x4(%esp)
 8049d9b:	8b 40 10             	mov    0x10(%eax),%eax
 8049d9e:	8b 00                	mov    (%eax),%eax
 8049da0:	89 04 24             	mov    %eax,(%esp)
 8049da3:	e8 58 ea ff ff       	call   8048800 <bcopy@plt>
 8049da8:	66 c7 44 24 12 3b 6e 	movw   $0x6e3b,0x12(%esp)
 8049daf:	c7 44 24 08 10 00 00 	movl   $0x10,0x8(%esp)
 8049db6:	00 
 8049db7:	89 7c 24 04          	mov    %edi,0x4(%esp)
 8049dbb:	89 1c 24             	mov    %ebx,(%esp)
 8049dbe:	e8 3d eb ff ff       	call   8048900 <connect@plt>
 8049dc3:	85 c0                	test   %eax,%eax
 8049dc5:	79 27                	jns    8049dee <init_driver+0x1bb>
 8049dc7:	c7 44 24 08 2c a4 04 	movl   $0x804a42c,0x8(%esp)
 8049dce:	08 
 8049dcf:	c7 44 24 04 ec a3 04 	movl   $0x804a3ec,0x4(%esp)
 8049dd6:	08 
 8049dd7:	89 34 24             	mov    %esi,(%esp)
 8049dda:	e8 e1 ea ff ff       	call   80488c0 <sprintf@plt>
 8049ddf:	89 1c 24             	mov    %ebx,(%esp)
 8049de2:	e8 29 eb ff ff       	call   8048910 <close@plt>
 8049de7:	b8 ff ff ff ff       	mov    $0xffffffff,%eax
 8049dec:	eb 16                	jmp    8049e04 <init_driver+0x1d1>
 8049dee:	89 1c 24             	mov    %ebx,(%esp)
 8049df1:	e8 1a eb ff ff       	call   8048910 <close@plt>
 8049df6:	66 c7 06 4f 4b       	movw   $0x4b4f,(%esi)
 8049dfb:	c6 46 02 00          	movb   $0x0,0x2(%esi)
 8049dff:	b8 00 00 00 00       	mov    $0x0,%eax
 8049e04:	83 c4 20             	add    $0x20,%esp
 8049e07:	5b                   	pop    %ebx
 8049e08:	5e                   	pop    %esi
 8049e09:	5f                   	pop    %edi
 8049e0a:	c3                   	ret    

08049e0b <driver_post>:
 8049e0b:	53                   	push   %ebx
 8049e0c:	83 ec 28             	sub    $0x28,%esp
 8049e0f:	8b 44 24 30          	mov    0x30(%esp),%eax
 8049e13:	8b 5c 24 3c          	mov    0x3c(%esp),%ebx
 8049e17:	83 7c 24 38 00       	cmpl   $0x0,0x38(%esp)
 8049e1c:	74 24                	je     8049e42 <driver_post+0x37>
 8049e1e:	8b 44 24 34          	mov    0x34(%esp),%eax
 8049e22:	89 44 24 04          	mov    %eax,0x4(%esp)
 8049e26:	c7 04 24 3a a4 04 08 	movl   $0x804a43a,(%esp)
 8049e2d:	e8 5e e9 ff ff       	call   8048790 <printf@plt>
 8049e32:	66 c7 03 4f 4b       	movw   $0x4b4f,(%ebx)
 8049e37:	c6 43 02 00          	movb   $0x0,0x2(%ebx)
 8049e3b:	b8 00 00 00 00       	mov    $0x0,%eax
 8049e40:	eb 4d                	jmp    8049e8f <driver_post+0x84>
 8049e42:	85 c0                	test   %eax,%eax
 8049e44:	74 3b                	je     8049e81 <driver_post+0x76>
 8049e46:	80 38 00             	cmpb   $0x0,(%eax)
 8049e49:	74 36                	je     8049e81 <driver_post+0x76>
 8049e4b:	89 5c 24 18          	mov    %ebx,0x18(%esp)
 8049e4f:	8b 54 24 34          	mov    0x34(%esp),%edx
 8049e53:	89 54 24 14          	mov    %edx,0x14(%esp)
 8049e57:	c7 44 24 10 51 a4 04 	movl   $0x804a451,0x10(%esp)
 8049e5e:	08 
 8049e5f:	89 44 24 0c          	mov    %eax,0xc(%esp)
 8049e63:	c7 44 24 08 59 a4 04 	movl   $0x804a459,0x8(%esp)
 8049e6a:	08 
 8049e6b:	c7 44 24 04 6e 3b 00 	movl   $0x3b6e,0x4(%esp)
 8049e72:	00 
 8049e73:	c7 04 24 2c a4 04 08 	movl   $0x804a42c,(%esp)
 8049e7a:	e8 99 f5 ff ff       	call   8049418 <submitr>
 8049e7f:	eb 0e                	jmp    8049e8f <driver_post+0x84>
 8049e81:	66 c7 03 4f 4b       	movw   $0x4b4f,(%ebx)
 8049e86:	c6 43 02 00          	movb   $0x0,0x2(%ebx)
 8049e8a:	b8 00 00 00 00       	mov    $0x0,%eax
 8049e8f:	83 c4 28             	add    $0x28,%esp
 8049e92:	5b                   	pop    %ebx
 8049e93:	c3                   	ret    
 8049e94:	90                   	nop
 8049e95:	90                   	nop
 8049e96:	90                   	nop
 8049e97:	90                   	nop
 8049e98:	90                   	nop
 8049e99:	90                   	nop
 8049e9a:	90                   	nop
 8049e9b:	90                   	nop
 8049e9c:	90                   	nop
 8049e9d:	90                   	nop
 8049e9e:	90                   	nop
 8049e9f:	90                   	nop

08049ea0 <__libc_csu_fini>:
 8049ea0:	55                   	push   %ebp
 8049ea1:	89 e5                	mov    %esp,%ebp
 8049ea3:	5d                   	pop    %ebp
 8049ea4:	c3                   	ret    
 8049ea5:	8d 74 26 00          	lea    0x0(%esi,%eiz,1),%esi
 8049ea9:	8d bc 27 00 00 00 00 	lea    0x0(%edi,%eiz,1),%edi

08049eb0 <__libc_csu_init>:
 8049eb0:	55                   	push   %ebp
 8049eb1:	89 e5                	mov    %esp,%ebp
 8049eb3:	57                   	push   %edi
 8049eb4:	56                   	push   %esi
 8049eb5:	53                   	push   %ebx
 8049eb6:	e8 4f 00 00 00       	call   8049f0a <__i686.get_pc_thunk.bx>
 8049ebb:	81 c3 45 12 00 00    	add    $0x1245,%ebx
 8049ec1:	83 ec 1c             	sub    $0x1c,%esp
 8049ec4:	e8 7f e8 ff ff       	call   8048748 <_init>
 8049ec9:	8d bb 04 ff ff ff    	lea    -0xfc(%ebx),%edi
 8049ecf:	8d 83 00 ff ff ff    	lea    -0x100(%ebx),%eax
 8049ed5:	29 c7                	sub    %eax,%edi
 8049ed7:	c1 ff 02             	sar    $0x2,%edi
 8049eda:	85 ff                	test   %edi,%edi
 8049edc:	74 24                	je     8049f02 <__libc_csu_init+0x52>
 8049ede:	31 f6                	xor    %esi,%esi
 8049ee0:	8b 45 10             	mov    0x10(%ebp),%eax
 8049ee3:	89 44 24 08          	mov    %eax,0x8(%esp)
 8049ee7:	8b 45 0c             	mov    0xc(%ebp),%eax
 8049eea:	89 44 24 04          	mov    %eax,0x4(%esp)
 8049eee:	8b 45 08             	mov    0x8(%ebp),%eax
 8049ef1:	89 04 24             	mov    %eax,(%esp)
 8049ef4:	ff 94 b3 00 ff ff ff 	call   *-0x100(%ebx,%esi,4)
 8049efb:	83 c6 01             	add    $0x1,%esi
 8049efe:	39 fe                	cmp    %edi,%esi
 8049f00:	72 de                	jb     8049ee0 <__libc_csu_init+0x30>
 8049f02:	83 c4 1c             	add    $0x1c,%esp
 8049f05:	5b                   	pop    %ebx
 8049f06:	5e                   	pop    %esi
 8049f07:	5f                   	pop    %edi
 8049f08:	5d                   	pop    %ebp
 8049f09:	c3                   	ret    

08049f0a <__i686.get_pc_thunk.bx>:
 8049f0a:	8b 1c 24             	mov    (%esp),%ebx
 8049f0d:	c3                   	ret    
 8049f0e:	90                   	nop
 8049f0f:	90                   	nop

Disassembly of section .fini:

08049f10 <_fini>:
 8049f10:	55                   	push   %ebp
 8049f11:	89 e5                	mov    %esp,%ebp
 8049f13:	53                   	push   %ebx
 8049f14:	83 ec 04             	sub    $0x4,%esp
 8049f17:	e8 00 00 00 00       	call   8049f1c <_fini+0xc>
 8049f1c:	5b                   	pop    %ebx
 8049f1d:	81 c3 e4 11 00 00    	add    $0x11e4,%ebx
 8049f23:	59                   	pop    %ecx
 8049f24:	5b                   	pop    %ebx
 8049f25:	c9                   	leave  
 8049f26:	c3                   	ret    
